

Microchip MPLAB XC8 Assembler V2.36 build 20220127204148 
                                                                                               Tue Jun 21 16:36:58 2022

Microchip MPLAB XC8 C Compiler v2.36 (Free license) build 20220127204148 Og1 
     1                           	processor	16F1827
     2                           	pagewidth 120
     3                           	opt	flic
     4                           	psect	nvBANK0,global,class=BANK0,space=1,delta=1,noexec
     5                           	psect	cinit,global,class=CODE,merge=1,delta=2
     6                           	psect	bssCOMMON,global,class=COMMON,space=1,delta=1,noexec
     7                           	psect	bssBANK0,global,class=BANK0,space=1,delta=1,noexec
     8                           	psect	clrtext,global,class=CODE,delta=2
     9                           	psect	cstackCOMMON,global,class=COMMON,space=1,delta=1,noexec
    10                           	psect	maintext,global,class=CODE,merge=1,split=1,delta=2
    11                           	psect	text1,local,class=CODE,merge=1,delta=2
    12                           	psect	text2,local,class=CODE,merge=1,delta=2
    13                           	psect	text3,local,class=CODE,merge=1,delta=2
    14                           	psect	text4,local,class=CODE,merge=1,delta=2
    15                           	psect	text5,local,class=CODE,merge=1,delta=2
    16                           	psect	text6,local,class=CODE,merge=1,delta=2
    17                           	psect	text7,local,class=CODE,merge=1,delta=2
    18                           	psect	text8,local,class=CODE,merge=1,delta=2
    19                           	psect	text9,local,class=CODE,merge=1,delta=2
    20                           	psect	text10,local,class=CODE,merge=1,delta=2
    21                           	psect	text11,local,class=CODE,merge=1,delta=2
    22                           	psect	text12,local,class=CODE,merge=1,delta=2
    23                           	psect	text13,local,class=CODE,merge=1,delta=2
    24                           	psect	text14,local,class=CODE,merge=1,delta=2
    25                           	psect	text15,local,class=CODE,merge=1,delta=2
    26                           	psect	text16,local,class=CODE,merge=1,delta=2
    27                           	psect	text17,local,class=CODE,merge=1,delta=2
    28                           	psect	text18,local,class=CODE,merge=1,delta=2
    29                           	psect	text19,local,class=CODE,merge=1,delta=2
    30                           	psect	text20,local,class=CODE,merge=1,delta=2
    31                           	psect	text21,local,class=CODE,merge=1,delta=2
    32                           	psect	text22,local,class=CODE,merge=1,delta=2
    33                           	psect	text23,local,class=CODE,merge=1,delta=2
    34                           	psect	text24,local,class=CODE,merge=1,delta=2
    35                           	psect	text25,local,class=CODE,merge=1,delta=2
    36                           	psect	text26,local,class=CODE,merge=1,delta=2
    37                           	psect	text27,local,class=CODE,merge=1,delta=2
    38                           	psect	idloc,global,abs,ovrld,class=IDLOC,space=5,delta=2,noexec
    39                           	psect	config,global,abs,ovrld,class=CONFIG,space=4,delta=2,noexec
    40                           	dabs	1,0x7E,2
    41  0000                     
    42                           ; Version 2.40
    43                           ; Generated 17/11/2021 GMT
    44                           ; 
    45                           ; Copyright © 2021, Microchip Technology Inc. and its subsidiaries ("Microchip")
    46                           ; All rights reserved.
    47                           ; 
    48                           ; This software is developed by Microchip Technology Inc. and its subsidiaries ("Microch
      +                          ip").
    49                           ; 
    50                           ; Redistribution and use in source and binary forms, with or without modification, are
    51                           ; permitted provided that the following conditions are met:
    52                           ; 
    53                           ;     1. Redistributions of source code must retain the above copyright notice, this lis
      +                          t of
    54                           ;        conditions and the following disclaimer.
    55                           ; 
    56                           ;     2. Redistributions in binary form must reproduce the above copyright notice, this 
      +                          list
    57                           ;        of conditions and the following disclaimer in the documentation and/or other
    58                           ;        materials provided with the distribution. Publication is not required when
    59                           ;        this file is used in an embedded application.
    60                           ; 
    61                           ;     3. Microchip's name may not be used to endorse or promote products derived from th
      +                          is
    62                           ;        software without specific prior written permission.
    63                           ; 
    64                           ; THIS SOFTWARE IS PROVIDED BY MICROCHIP "AS IS" AND ANY EXPRESS OR IMPLIED WARRANTIES,
    65                           ; INCLUDING, BUT NOT LIMITED TO, THE IMPLIED WARRANTIES OF MERCHANTABILITY AND FITNESS F
      +                          OR
    66                           ; PURPOSE ARE DISCLAIMED.  IN NO EVENT SHALL MICROCHIP BE LIABLE FOR ANY DIRECT, INDIREC
      +                          T,
    67                           ; INCIDENTAL, SPECIAL, EXEMPLARY, OR CONSEQUENTIAL DAMAGES (INCLUDING BUT NOT LIMITED TO
    68                           ; PROCUREMENT OF SUBSTITUTE GOODS OR SERVICES; LOSS OF USE, DATA OR PROFITS; OR BUSINESS
    69                           ; INTERRUPTION) HOWSOEVER CAUSED AND ON ANY THEORY OF LIABILITY, WHETHER IN CONTRACT, ST
      +                          RICT
    70                           ; LIABILITY, OR TORT (INCLUDING NEGLIGENCE OR OTHERWISE) ARISING IN ANY WAY OUT OF THE U
      +                          SE OF
    71                           ; THIS SOFTWARE, EVEN IF ADVISED OF THE POSSIBILITY OF SUCH DAMAGE.
    72                           ; 
    73                           ; 
    74                           ; Code-generator required, PIC16F1827 Definitions
    75                           ; 
    76                           ; SFR Addresses
    77  0000                     	;# 
    78  0001                     	;# 
    79  0002                     	;# 
    80  0003                     	;# 
    81  0004                     	;# 
    82  0005                     	;# 
    83  0006                     	;# 
    84  0007                     	;# 
    85  0008                     	;# 
    86  0009                     	;# 
    87  000A                     	;# 
    88  000B                     	;# 
    89  000C                     	;# 
    90  000D                     	;# 
    91  0011                     	;# 
    92  0012                     	;# 
    93  0013                     	;# 
    94  0014                     	;# 
    95  0015                     	;# 
    96  0016                     	;# 
    97  0016                     	;# 
    98  0017                     	;# 
    99  0018                     	;# 
   100  0019                     	;# 
   101  001A                     	;# 
   102  001B                     	;# 
   103  001C                     	;# 
   104  001E                     	;# 
   105  001F                     	;# 
   106  008C                     	;# 
   107  008D                     	;# 
   108  0091                     	;# 
   109  0092                     	;# 
   110  0093                     	;# 
   111  0094                     	;# 
   112  0095                     	;# 
   113  0096                     	;# 
   114  0097                     	;# 
   115  0098                     	;# 
   116  0099                     	;# 
   117  009A                     	;# 
   118  009B                     	;# 
   119  009B                     	;# 
   120  009C                     	;# 
   121  009D                     	;# 
   122  009E                     	;# 
   123  010C                     	;# 
   124  010D                     	;# 
   125  0111                     	;# 
   126  0112                     	;# 
   127  0113                     	;# 
   128  0114                     	;# 
   129  0115                     	;# 
   130  0116                     	;# 
   131  0117                     	;# 
   132  0118                     	;# 
   133  0119                     	;# 
   134  011A                     	;# 
   135  011B                     	;# 
   136  011D                     	;# 
   137  011E                     	;# 
   138  018C                     	;# 
   139  018D                     	;# 
   140  0191                     	;# 
   141  0191                     	;# 
   142  0192                     	;# 
   143  0193                     	;# 
   144  0193                     	;# 
   145  0193                     	;# 
   146  0194                     	;# 
   147  0195                     	;# 
   148  0196                     	;# 
   149  0199                     	;# 
   150  019A                     	;# 
   151  019B                     	;# 
   152  019B                     	;# 
   153  019B                     	;# 
   154  019B                     	;# 
   155  019C                     	;# 
   156  019C                     	;# 
   157  019D                     	;# 
   158  019E                     	;# 
   159  019F                     	;# 
   160  020C                     	;# 
   161  020D                     	;# 
   162  0211                     	;# 
   163  0211                     	;# 
   164  0212                     	;# 
   165  0212                     	;# 
   166  0213                     	;# 
   167  0213                     	;# 
   168  0214                     	;# 
   169  0214                     	;# 
   170  0215                     	;# 
   171  0215                     	;# 
   172  0215                     	;# 
   173  0216                     	;# 
   174  0216                     	;# 
   175  0217                     	;# 
   176  0217                     	;# 
   177  0219                     	;# 
   178  021A                     	;# 
   179  021B                     	;# 
   180  021C                     	;# 
   181  021D                     	;# 
   182  021E                     	;# 
   183  021F                     	;# 
   184  0291                     	;# 
   185  0291                     	;# 
   186  0292                     	;# 
   187  0293                     	;# 
   188  0294                     	;# 
   189  0295                     	;# 
   190  0295                     	;# 
   191  0296                     	;# 
   192  0298                     	;# 
   193  0298                     	;# 
   194  0299                     	;# 
   195  029A                     	;# 
   196  029B                     	;# 
   197  029C                     	;# 
   198  029C                     	;# 
   199  029D                     	;# 
   200  029E                     	;# 
   201  029E                     	;# 
   202  0311                     	;# 
   203  0311                     	;# 
   204  0312                     	;# 
   205  0313                     	;# 
   206  0318                     	;# 
   207  0318                     	;# 
   208  0319                     	;# 
   209  031A                     	;# 
   210  0394                     	;# 
   211  0395                     	;# 
   212  0396                     	;# 
   213  039A                     	;# 
   214  039C                     	;# 
   215  039D                     	;# 
   216  039E                     	;# 
   217  039F                     	;# 
   218  0415                     	;# 
   219  0416                     	;# 
   220  0417                     	;# 
   221  041C                     	;# 
   222  041D                     	;# 
   223  041E                     	;# 
   224  0FE4                     	;# 
   225  0FE5                     	;# 
   226  0FE6                     	;# 
   227  0FE7                     	;# 
   228  0FE8                     	;# 
   229  0FE9                     	;# 
   230  0FEA                     	;# 
   231  0FEB                     	;# 
   232  0FED                     	;# 
   233  0FEE                     	;# 
   234  0FEF                     	;# 
   235  0000                     	;# 
   236  0001                     	;# 
   237  0002                     	;# 
   238  0003                     	;# 
   239  0004                     	;# 
   240  0005                     	;# 
   241  0006                     	;# 
   242  0007                     	;# 
   243  0008                     	;# 
   244  0009                     	;# 
   245  000A                     	;# 
   246  000B                     	;# 
   247  000C                     	;# 
   248  000D                     	;# 
   249  0011                     	;# 
   250  0012                     	;# 
   251  0013                     	;# 
   252  0014                     	;# 
   253  0015                     	;# 
   254  0016                     	;# 
   255  0016                     	;# 
   256  0017                     	;# 
   257  0018                     	;# 
   258  0019                     	;# 
   259  001A                     	;# 
   260  001B                     	;# 
   261  001C                     	;# 
   262  001E                     	;# 
   263  001F                     	;# 
   264  008C                     	;# 
   265  008D                     	;# 
   266  0091                     	;# 
   267  0092                     	;# 
   268  0093                     	;# 
   269  0094                     	;# 
   270  0095                     	;# 
   271  0096                     	;# 
   272  0097                     	;# 
   273  0098                     	;# 
   274  0099                     	;# 
   275  009A                     	;# 
   276  009B                     	;# 
   277  009B                     	;# 
   278  009C                     	;# 
   279  009D                     	;# 
   280  009E                     	;# 
   281  010C                     	;# 
   282  010D                     	;# 
   283  0111                     	;# 
   284  0112                     	;# 
   285  0113                     	;# 
   286  0114                     	;# 
   287  0115                     	;# 
   288  0116                     	;# 
   289  0117                     	;# 
   290  0118                     	;# 
   291  0119                     	;# 
   292  011A                     	;# 
   293  011B                     	;# 
   294  011D                     	;# 
   295  011E                     	;# 
   296  018C                     	;# 
   297  018D                     	;# 
   298  0191                     	;# 
   299  0191                     	;# 
   300  0192                     	;# 
   301  0193                     	;# 
   302  0193                     	;# 
   303  0193                     	;# 
   304  0194                     	;# 
   305  0195                     	;# 
   306  0196                     	;# 
   307  0199                     	;# 
   308  019A                     	;# 
   309  019B                     	;# 
   310  019B                     	;# 
   311  019B                     	;# 
   312  019B                     	;# 
   313  019C                     	;# 
   314  019C                     	;# 
   315  019D                     	;# 
   316  019E                     	;# 
   317  019F                     	;# 
   318  020C                     	;# 
   319  020D                     	;# 
   320  0211                     	;# 
   321  0211                     	;# 
   322  0212                     	;# 
   323  0212                     	;# 
   324  0213                     	;# 
   325  0213                     	;# 
   326  0214                     	;# 
   327  0214                     	;# 
   328  0215                     	;# 
   329  0215                     	;# 
   330  0215                     	;# 
   331  0216                     	;# 
   332  0216                     	;# 
   333  0217                     	;# 
   334  0217                     	;# 
   335  0219                     	;# 
   336  021A                     	;# 
   337  021B                     	;# 
   338  021C                     	;# 
   339  021D                     	;# 
   340  021E                     	;# 
   341  021F                     	;# 
   342  0291                     	;# 
   343  0291                     	;# 
   344  0292                     	;# 
   345  0293                     	;# 
   346  0294                     	;# 
   347  0295                     	;# 
   348  0295                     	;# 
   349  0296                     	;# 
   350  0298                     	;# 
   351  0298                     	;# 
   352  0299                     	;# 
   353  029A                     	;# 
   354  029B                     	;# 
   355  029C                     	;# 
   356  029C                     	;# 
   357  029D                     	;# 
   358  029E                     	;# 
   359  029E                     	;# 
   360  0311                     	;# 
   361  0311                     	;# 
   362  0312                     	;# 
   363  0313                     	;# 
   364  0318                     	;# 
   365  0318                     	;# 
   366  0319                     	;# 
   367  031A                     	;# 
   368  0394                     	;# 
   369  0395                     	;# 
   370  0396                     	;# 
   371  039A                     	;# 
   372  039C                     	;# 
   373  039D                     	;# 
   374  039E                     	;# 
   375  039F                     	;# 
   376  0415                     	;# 
   377  0416                     	;# 
   378  0417                     	;# 
   379  041C                     	;# 
   380  041D                     	;# 
   381  041E                     	;# 
   382  0FE4                     	;# 
   383  0FE5                     	;# 
   384  0FE6                     	;# 
   385  0FE7                     	;# 
   386  0FE8                     	;# 
   387  0FE9                     	;# 
   388  0FEA                     	;# 
   389  0FEB                     	;# 
   390  0FED                     	;# 
   391  0FEE                     	;# 
   392  0FEF                     	;# 
   393  0000                     	;# 
   394  0001                     	;# 
   395  0002                     	;# 
   396  0003                     	;# 
   397  0004                     	;# 
   398  0005                     	;# 
   399  0006                     	;# 
   400  0007                     	;# 
   401  0008                     	;# 
   402  0009                     	;# 
   403  000A                     	;# 
   404  000B                     	;# 
   405  000C                     	;# 
   406  000D                     	;# 
   407  0011                     	;# 
   408  0012                     	;# 
   409  0013                     	;# 
   410  0014                     	;# 
   411  0015                     	;# 
   412  0016                     	;# 
   413  0016                     	;# 
   414  0017                     	;# 
   415  0018                     	;# 
   416  0019                     	;# 
   417  001A                     	;# 
   418  001B                     	;# 
   419  001C                     	;# 
   420  001E                     	;# 
   421  001F                     	;# 
   422  008C                     	;# 
   423  008D                     	;# 
   424  0091                     	;# 
   425  0092                     	;# 
   426  0093                     	;# 
   427  0094                     	;# 
   428  0095                     	;# 
   429  0096                     	;# 
   430  0097                     	;# 
   431  0098                     	;# 
   432  0099                     	;# 
   433  009A                     	;# 
   434  009B                     	;# 
   435  009B                     	;# 
   436  009C                     	;# 
   437  009D                     	;# 
   438  009E                     	;# 
   439  010C                     	;# 
   440  010D                     	;# 
   441  0111                     	;# 
   442  0112                     	;# 
   443  0113                     	;# 
   444  0114                     	;# 
   445  0115                     	;# 
   446  0116                     	;# 
   447  0117                     	;# 
   448  0118                     	;# 
   449  0119                     	;# 
   450  011A                     	;# 
   451  011B                     	;# 
   452  011D                     	;# 
   453  011E                     	;# 
   454  018C                     	;# 
   455  018D                     	;# 
   456  0191                     	;# 
   457  0191                     	;# 
   458  0192                     	;# 
   459  0193                     	;# 
   460  0193                     	;# 
   461  0193                     	;# 
   462  0194                     	;# 
   463  0195                     	;# 
   464  0196                     	;# 
   465  0199                     	;# 
   466  019A                     	;# 
   467  019B                     	;# 
   468  019B                     	;# 
   469  019B                     	;# 
   470  019B                     	;# 
   471  019C                     	;# 
   472  019C                     	;# 
   473  019D                     	;# 
   474  019E                     	;# 
   475  019F                     	;# 
   476  020C                     	;# 
   477  020D                     	;# 
   478  0211                     	;# 
   479  0211                     	;# 
   480  0212                     	;# 
   481  0212                     	;# 
   482  0213                     	;# 
   483  0213                     	;# 
   484  0214                     	;# 
   485  0214                     	;# 
   486  0215                     	;# 
   487  0215                     	;# 
   488  0215                     	;# 
   489  0216                     	;# 
   490  0216                     	;# 
   491  0217                     	;# 
   492  0217                     	;# 
   493  0219                     	;# 
   494  021A                     	;# 
   495  021B                     	;# 
   496  021C                     	;# 
   497  021D                     	;# 
   498  021E                     	;# 
   499  021F                     	;# 
   500  0291                     	;# 
   501  0291                     	;# 
   502  0292                     	;# 
   503  0293                     	;# 
   504  0294                     	;# 
   505  0295                     	;# 
   506  0295                     	;# 
   507  0296                     	;# 
   508  0298                     	;# 
   509  0298                     	;# 
   510  0299                     	;# 
   511  029A                     	;# 
   512  029B                     	;# 
   513  029C                     	;# 
   514  029C                     	;# 
   515  029D                     	;# 
   516  029E                     	;# 
   517  029E                     	;# 
   518  0311                     	;# 
   519  0311                     	;# 
   520  0312                     	;# 
   521  0313                     	;# 
   522  0318                     	;# 
   523  0318                     	;# 
   524  0319                     	;# 
   525  031A                     	;# 
   526  0394                     	;# 
   527  0395                     	;# 
   528  0396                     	;# 
   529  039A                     	;# 
   530  039C                     	;# 
   531  039D                     	;# 
   532  039E                     	;# 
   533  039F                     	;# 
   534  0415                     	;# 
   535  0416                     	;# 
   536  0417                     	;# 
   537  041C                     	;# 
   538  041D                     	;# 
   539  041E                     	;# 
   540  0FE4                     	;# 
   541  0FE5                     	;# 
   542  0FE6                     	;# 
   543  0FE7                     	;# 
   544  0FE8                     	;# 
   545  0FE9                     	;# 
   546  0FEA                     	;# 
   547  0FEB                     	;# 
   548  0FED                     	;# 
   549  0FEE                     	;# 
   550  0FEF                     	;# 
   551  0000                     	;# 
   552  0001                     	;# 
   553  0002                     	;# 
   554  0003                     	;# 
   555  0004                     	;# 
   556  0005                     	;# 
   557  0006                     	;# 
   558  0007                     	;# 
   559  0008                     	;# 
   560  0009                     	;# 
   561  000A                     	;# 
   562  000B                     	;# 
   563  000C                     	;# 
   564  000D                     	;# 
   565  0011                     	;# 
   566  0012                     	;# 
   567  0013                     	;# 
   568  0014                     	;# 
   569  0015                     	;# 
   570  0016                     	;# 
   571  0016                     	;# 
   572  0017                     	;# 
   573  0018                     	;# 
   574  0019                     	;# 
   575  001A                     	;# 
   576  001B                     	;# 
   577  001C                     	;# 
   578  001E                     	;# 
   579  001F                     	;# 
   580  008C                     	;# 
   581  008D                     	;# 
   582  0091                     	;# 
   583  0092                     	;# 
   584  0093                     	;# 
   585  0094                     	;# 
   586  0095                     	;# 
   587  0096                     	;# 
   588  0097                     	;# 
   589  0098                     	;# 
   590  0099                     	;# 
   591  009A                     	;# 
   592  009B                     	;# 
   593  009B                     	;# 
   594  009C                     	;# 
   595  009D                     	;# 
   596  009E                     	;# 
   597  010C                     	;# 
   598  010D                     	;# 
   599  0111                     	;# 
   600  0112                     	;# 
   601  0113                     	;# 
   602  0114                     	;# 
   603  0115                     	;# 
   604  0116                     	;# 
   605  0117                     	;# 
   606  0118                     	;# 
   607  0119                     	;# 
   608  011A                     	;# 
   609  011B                     	;# 
   610  011D                     	;# 
   611  011E                     	;# 
   612  018C                     	;# 
   613  018D                     	;# 
   614  0191                     	;# 
   615  0191                     	;# 
   616  0192                     	;# 
   617  0193                     	;# 
   618  0193                     	;# 
   619  0193                     	;# 
   620  0194                     	;# 
   621  0195                     	;# 
   622  0196                     	;# 
   623  0199                     	;# 
   624  019A                     	;# 
   625  019B                     	;# 
   626  019B                     	;# 
   627  019B                     	;# 
   628  019B                     	;# 
   629  019C                     	;# 
   630  019C                     	;# 
   631  019D                     	;# 
   632  019E                     	;# 
   633  019F                     	;# 
   634  020C                     	;# 
   635  020D                     	;# 
   636  0211                     	;# 
   637  0211                     	;# 
   638  0212                     	;# 
   639  0212                     	;# 
   640  0213                     	;# 
   641  0213                     	;# 
   642  0214                     	;# 
   643  0214                     	;# 
   644  0215                     	;# 
   645  0215                     	;# 
   646  0215                     	;# 
   647  0216                     	;# 
   648  0216                     	;# 
   649  0217                     	;# 
   650  0217                     	;# 
   651  0219                     	;# 
   652  021A                     	;# 
   653  021B                     	;# 
   654  021C                     	;# 
   655  021D                     	;# 
   656  021E                     	;# 
   657  021F                     	;# 
   658  0291                     	;# 
   659  0291                     	;# 
   660  0292                     	;# 
   661  0293                     	;# 
   662  0294                     	;# 
   663  0295                     	;# 
   664  0295                     	;# 
   665  0296                     	;# 
   666  0298                     	;# 
   667  0298                     	;# 
   668  0299                     	;# 
   669  029A                     	;# 
   670  029B                     	;# 
   671  029C                     	;# 
   672  029C                     	;# 
   673  029D                     	;# 
   674  029E                     	;# 
   675  029E                     	;# 
   676  0311                     	;# 
   677  0311                     	;# 
   678  0312                     	;# 
   679  0313                     	;# 
   680  0318                     	;# 
   681  0318                     	;# 
   682  0319                     	;# 
   683  031A                     	;# 
   684  0394                     	;# 
   685  0395                     	;# 
   686  0396                     	;# 
   687  039A                     	;# 
   688  039C                     	;# 
   689  039D                     	;# 
   690  039E                     	;# 
   691  039F                     	;# 
   692  0415                     	;# 
   693  0416                     	;# 
   694  0417                     	;# 
   695  041C                     	;# 
   696  041D                     	;# 
   697  041E                     	;# 
   698  0FE4                     	;# 
   699  0FE5                     	;# 
   700  0FE6                     	;# 
   701  0FE7                     	;# 
   702  0FE8                     	;# 
   703  0FE9                     	;# 
   704  0FEA                     	;# 
   705  0FEB                     	;# 
   706  0FED                     	;# 
   707  0FEE                     	;# 
   708  0FEF                     	;# 
   709  0000                     	;# 
   710  0001                     	;# 
   711  0002                     	;# 
   712  0003                     	;# 
   713  0004                     	;# 
   714  0005                     	;# 
   715  0006                     	;# 
   716  0007                     	;# 
   717  0008                     	;# 
   718  0009                     	;# 
   719  000A                     	;# 
   720  000B                     	;# 
   721  000C                     	;# 
   722  000D                     	;# 
   723  0011                     	;# 
   724  0012                     	;# 
   725  0013                     	;# 
   726  0014                     	;# 
   727  0015                     	;# 
   728  0016                     	;# 
   729  0016                     	;# 
   730  0017                     	;# 
   731  0018                     	;# 
   732  0019                     	;# 
   733  001A                     	;# 
   734  001B                     	;# 
   735  001C                     	;# 
   736  001E                     	;# 
   737  001F                     	;# 
   738  008C                     	;# 
   739  008D                     	;# 
   740  0091                     	;# 
   741  0092                     	;# 
   742  0093                     	;# 
   743  0094                     	;# 
   744  0095                     	;# 
   745  0096                     	;# 
   746  0097                     	;# 
   747  0098                     	;# 
   748  0099                     	;# 
   749  009A                     	;# 
   750  009B                     	;# 
   751  009B                     	;# 
   752  009C                     	;# 
   753  009D                     	;# 
   754  009E                     	;# 
   755  010C                     	;# 
   756  010D                     	;# 
   757  0111                     	;# 
   758  0112                     	;# 
   759  0113                     	;# 
   760  0114                     	;# 
   761  0115                     	;# 
   762  0116                     	;# 
   763  0117                     	;# 
   764  0118                     	;# 
   765  0119                     	;# 
   766  011A                     	;# 
   767  011B                     	;# 
   768  011D                     	;# 
   769  011E                     	;# 
   770  018C                     	;# 
   771  018D                     	;# 
   772  0191                     	;# 
   773  0191                     	;# 
   774  0192                     	;# 
   775  0193                     	;# 
   776  0193                     	;# 
   777  0193                     	;# 
   778  0194                     	;# 
   779  0195                     	;# 
   780  0196                     	;# 
   781  0199                     	;# 
   782  019A                     	;# 
   783  019B                     	;# 
   784  019B                     	;# 
   785  019B                     	;# 
   786  019B                     	;# 
   787  019C                     	;# 
   788  019C                     	;# 
   789  019D                     	;# 
   790  019E                     	;# 
   791  019F                     	;# 
   792  020C                     	;# 
   793  020D                     	;# 
   794  0211                     	;# 
   795  0211                     	;# 
   796  0212                     	;# 
   797  0212                     	;# 
   798  0213                     	;# 
   799  0213                     	;# 
   800  0214                     	;# 
   801  0214                     	;# 
   802  0215                     	;# 
   803  0215                     	;# 
   804  0215                     	;# 
   805  0216                     	;# 
   806  0216                     	;# 
   807  0217                     	;# 
   808  0217                     	;# 
   809  0219                     	;# 
   810  021A                     	;# 
   811  021B                     	;# 
   812  021C                     	;# 
   813  021D                     	;# 
   814  021E                     	;# 
   815  021F                     	;# 
   816  0291                     	;# 
   817  0291                     	;# 
   818  0292                     	;# 
   819  0293                     	;# 
   820  0294                     	;# 
   821  0295                     	;# 
   822  0295                     	;# 
   823  0296                     	;# 
   824  0298                     	;# 
   825  0298                     	;# 
   826  0299                     	;# 
   827  029A                     	;# 
   828  029B                     	;# 
   829  029C                     	;# 
   830  029C                     	;# 
   831  029D                     	;# 
   832  029E                     	;# 
   833  029E                     	;# 
   834  0311                     	;# 
   835  0311                     	;# 
   836  0312                     	;# 
   837  0313                     	;# 
   838  0318                     	;# 
   839  0318                     	;# 
   840  0319                     	;# 
   841  031A                     	;# 
   842  0394                     	;# 
   843  0395                     	;# 
   844  0396                     	;# 
   845  039A                     	;# 
   846  039C                     	;# 
   847  039D                     	;# 
   848  039E                     	;# 
   849  039F                     	;# 
   850  0415                     	;# 
   851  0416                     	;# 
   852  0417                     	;# 
   853  041C                     	;# 
   854  041D                     	;# 
   855  041E                     	;# 
   856  0FE4                     	;# 
   857  0FE5                     	;# 
   858  0FE6                     	;# 
   859  0FE7                     	;# 
   860  0FE8                     	;# 
   861  0FE9                     	;# 
   862  0FEA                     	;# 
   863  0FEB                     	;# 
   864  0FED                     	;# 
   865  0FEE                     	;# 
   866  0FEF                     	;# 
   867  0000                     	;# 
   868  0001                     	;# 
   869  0002                     	;# 
   870  0003                     	;# 
   871  0004                     	;# 
   872  0005                     	;# 
   873  0006                     	;# 
   874  0007                     	;# 
   875  0008                     	;# 
   876  0009                     	;# 
   877  000A                     	;# 
   878  000B                     	;# 
   879  000C                     	;# 
   880  000D                     	;# 
   881  0011                     	;# 
   882  0012                     	;# 
   883  0013                     	;# 
   884  0014                     	;# 
   885  0015                     	;# 
   886  0016                     	;# 
   887  0016                     	;# 
   888  0017                     	;# 
   889  0018                     	;# 
   890  0019                     	;# 
   891  001A                     	;# 
   892  001B                     	;# 
   893  001C                     	;# 
   894  001E                     	;# 
   895  001F                     	;# 
   896  008C                     	;# 
   897  008D                     	;# 
   898  0091                     	;# 
   899  0092                     	;# 
   900  0093                     	;# 
   901  0094                     	;# 
   902  0095                     	;# 
   903  0096                     	;# 
   904  0097                     	;# 
   905  0098                     	;# 
   906  0099                     	;# 
   907  009A                     	;# 
   908  009B                     	;# 
   909  009B                     	;# 
   910  009C                     	;# 
   911  009D                     	;# 
   912  009E                     	;# 
   913  010C                     	;# 
   914  010D                     	;# 
   915  0111                     	;# 
   916  0112                     	;# 
   917  0113                     	;# 
   918  0114                     	;# 
   919  0115                     	;# 
   920  0116                     	;# 
   921  0117                     	;# 
   922  0118                     	;# 
   923  0119                     	;# 
   924  011A                     	;# 
   925  011B                     	;# 
   926  011D                     	;# 
   927  011E                     	;# 
   928  018C                     	;# 
   929  018D                     	;# 
   930  0191                     	;# 
   931  0191                     	;# 
   932  0192                     	;# 
   933  0193                     	;# 
   934  0193                     	;# 
   935  0193                     	;# 
   936  0194                     	;# 
   937  0195                     	;# 
   938  0196                     	;# 
   939  0199                     	;# 
   940  019A                     	;# 
   941  019B                     	;# 
   942  019B                     	;# 
   943  019B                     	;# 
   944  019B                     	;# 
   945  019C                     	;# 
   946  019C                     	;# 
   947  019D                     	;# 
   948  019E                     	;# 
   949  019F                     	;# 
   950  020C                     	;# 
   951  020D                     	;# 
   952  0211                     	;# 
   953  0211                     	;# 
   954  0212                     	;# 
   955  0212                     	;# 
   956  0213                     	;# 
   957  0213                     	;# 
   958  0214                     	;# 
   959  0214                     	;# 
   960  0215                     	;# 
   961  0215                     	;# 
   962  0215                     	;# 
   963  0216                     	;# 
   964  0216                     	;# 
   965  0217                     	;# 
   966  0217                     	;# 
   967  0219                     	;# 
   968  021A                     	;# 
   969  021B                     	;# 
   970  021C                     	;# 
   971  021D                     	;# 
   972  021E                     	;# 
   973  021F                     	;# 
   974  0291                     	;# 
   975  0291                     	;# 
   976  0292                     	;# 
   977  0293                     	;# 
   978  0294                     	;# 
   979  0295                     	;# 
   980  0295                     	;# 
   981  0296                     	;# 
   982  0298                     	;# 
   983  0298                     	;# 
   984  0299                     	;# 
   985  029A                     	;# 
   986  029B                     	;# 
   987  029C                     	;# 
   988  029C                     	;# 
   989  029D                     	;# 
   990  029E                     	;# 
   991  029E                     	;# 
   992  0311                     	;# 
   993  0311                     	;# 
   994  0312                     	;# 
   995  0313                     	;# 
   996  0318                     	;# 
   997  0318                     	;# 
   998  0319                     	;# 
   999  031A                     	;# 
  1000  0394                     	;# 
  1001  0395                     	;# 
  1002  0396                     	;# 
  1003  039A                     	;# 
  1004  039C                     	;# 
  1005  039D                     	;# 
  1006  039E                     	;# 
  1007  039F                     	;# 
  1008  0415                     	;# 
  1009  0416                     	;# 
  1010  0417                     	;# 
  1011  041C                     	;# 
  1012  041D                     	;# 
  1013  041E                     	;# 
  1014  0FE4                     	;# 
  1015  0FE5                     	;# 
  1016  0FE6                     	;# 
  1017  0FE7                     	;# 
  1018  0FE8                     	;# 
  1019  0FE9                     	;# 
  1020  0FEA                     	;# 
  1021  0FEB                     	;# 
  1022  0FED                     	;# 
  1023  0FEE                     	;# 
  1024  0FEF                     	;# 
  1025  0000                     	;# 
  1026  0001                     	;# 
  1027  0002                     	;# 
  1028  0003                     	;# 
  1029  0004                     	;# 
  1030  0005                     	;# 
  1031  0006                     	;# 
  1032  0007                     	;# 
  1033  0008                     	;# 
  1034  0009                     	;# 
  1035  000A                     	;# 
  1036  000B                     	;# 
  1037  000C                     	;# 
  1038  000D                     	;# 
  1039  0011                     	;# 
  1040  0012                     	;# 
  1041  0013                     	;# 
  1042  0014                     	;# 
  1043  0015                     	;# 
  1044  0016                     	;# 
  1045  0016                     	;# 
  1046  0017                     	;# 
  1047  0018                     	;# 
  1048  0019                     	;# 
  1049  001A                     	;# 
  1050  001B                     	;# 
  1051  001C                     	;# 
  1052  001E                     	;# 
  1053  001F                     	;# 
  1054  008C                     	;# 
  1055  008D                     	;# 
  1056  0091                     	;# 
  1057  0092                     	;# 
  1058  0093                     	;# 
  1059  0094                     	;# 
  1060  0095                     	;# 
  1061  0096                     	;# 
  1062  0097                     	;# 
  1063  0098                     	;# 
  1064  0099                     	;# 
  1065  009A                     	;# 
  1066  009B                     	;# 
  1067  009B                     	;# 
  1068  009C                     	;# 
  1069  009D                     	;# 
  1070  009E                     	;# 
  1071  010C                     	;# 
  1072  010D                     	;# 
  1073  0111                     	;# 
  1074  0112                     	;# 
  1075  0113                     	;# 
  1076  0114                     	;# 
  1077  0115                     	;# 
  1078  0116                     	;# 
  1079  0117                     	;# 
  1080  0118                     	;# 
  1081  0119                     	;# 
  1082  011A                     	;# 
  1083  011B                     	;# 
  1084  011D                     	;# 
  1085  011E                     	;# 
  1086  018C                     	;# 
  1087  018D                     	;# 
  1088  0191                     	;# 
  1089  0191                     	;# 
  1090  0192                     	;# 
  1091  0193                     	;# 
  1092  0193                     	;# 
  1093  0193                     	;# 
  1094  0194                     	;# 
  1095  0195                     	;# 
  1096  0196                     	;# 
  1097  0199                     	;# 
  1098  019A                     	;# 
  1099  019B                     	;# 
  1100  019B                     	;# 
  1101  019B                     	;# 
  1102  019B                     	;# 
  1103  019C                     	;# 
  1104  019C                     	;# 
  1105  019D                     	;# 
  1106  019E                     	;# 
  1107  019F                     	;# 
  1108  020C                     	;# 
  1109  020D                     	;# 
  1110  0211                     	;# 
  1111  0211                     	;# 
  1112  0212                     	;# 
  1113  0212                     	;# 
  1114  0213                     	;# 
  1115  0213                     	;# 
  1116  0214                     	;# 
  1117  0214                     	;# 
  1118  0215                     	;# 
  1119  0215                     	;# 
  1120  0215                     	;# 
  1121  0216                     	;# 
  1122  0216                     	;# 
  1123  0217                     	;# 
  1124  0217                     	;# 
  1125  0219                     	;# 
  1126  021A                     	;# 
  1127  021B                     	;# 
  1128  021C                     	;# 
  1129  021D                     	;# 
  1130  021E                     	;# 
  1131  021F                     	;# 
  1132  0291                     	;# 
  1133  0291                     	;# 
  1134  0292                     	;# 
  1135  0293                     	;# 
  1136  0294                     	;# 
  1137  0295                     	;# 
  1138  0295                     	;# 
  1139  0296                     	;# 
  1140  0298                     	;# 
  1141  0298                     	;# 
  1142  0299                     	;# 
  1143  029A                     	;# 
  1144  029B                     	;# 
  1145  029C                     	;# 
  1146  029C                     	;# 
  1147  029D                     	;# 
  1148  029E                     	;# 
  1149  029E                     	;# 
  1150  0311                     	;# 
  1151  0311                     	;# 
  1152  0312                     	;# 
  1153  0313                     	;# 
  1154  0318                     	;# 
  1155  0318                     	;# 
  1156  0319                     	;# 
  1157  031A                     	;# 
  1158  0394                     	;# 
  1159  0395                     	;# 
  1160  0396                     	;# 
  1161  039A                     	;# 
  1162  039C                     	;# 
  1163  039D                     	;# 
  1164  039E                     	;# 
  1165  039F                     	;# 
  1166  0415                     	;# 
  1167  0416                     	;# 
  1168  0417                     	;# 
  1169  041C                     	;# 
  1170  041D                     	;# 
  1171  041E                     	;# 
  1172  0FE4                     	;# 
  1173  0FE5                     	;# 
  1174  0FE6                     	;# 
  1175  0FE7                     	;# 
  1176  0FE8                     	;# 
  1177  0FE9                     	;# 
  1178  0FEA                     	;# 
  1179  0FEB                     	;# 
  1180  0FED                     	;# 
  1181  0FEE                     	;# 
  1182  0FEF                     	;# 
  1183  0000                     	;# 
  1184  0001                     	;# 
  1185  0002                     	;# 
  1186  0003                     	;# 
  1187  0004                     	;# 
  1188  0005                     	;# 
  1189  0006                     	;# 
  1190  0007                     	;# 
  1191  0008                     	;# 
  1192  0009                     	;# 
  1193  000A                     	;# 
  1194  000B                     	;# 
  1195  000C                     	;# 
  1196  000D                     	;# 
  1197  0011                     	;# 
  1198  0012                     	;# 
  1199  0013                     	;# 
  1200  0014                     	;# 
  1201  0015                     	;# 
  1202  0016                     	;# 
  1203  0016                     	;# 
  1204  0017                     	;# 
  1205  0018                     	;# 
  1206  0019                     	;# 
  1207  001A                     	;# 
  1208  001B                     	;# 
  1209  001C                     	;# 
  1210  001E                     	;# 
  1211  001F                     	;# 
  1212  008C                     	;# 
  1213  008D                     	;# 
  1214  0091                     	;# 
  1215  0092                     	;# 
  1216  0093                     	;# 
  1217  0094                     	;# 
  1218  0095                     	;# 
  1219  0096                     	;# 
  1220  0097                     	;# 
  1221  0098                     	;# 
  1222  0099                     	;# 
  1223  009A                     	;# 
  1224  009B                     	;# 
  1225  009B                     	;# 
  1226  009C                     	;# 
  1227  009D                     	;# 
  1228  009E                     	;# 
  1229  010C                     	;# 
  1230  010D                     	;# 
  1231  0111                     	;# 
  1232  0112                     	;# 
  1233  0113                     	;# 
  1234  0114                     	;# 
  1235  0115                     	;# 
  1236  0116                     	;# 
  1237  0117                     	;# 
  1238  0118                     	;# 
  1239  0119                     	;# 
  1240  011A                     	;# 
  1241  011B                     	;# 
  1242  011D                     	;# 
  1243  011E                     	;# 
  1244  018C                     	;# 
  1245  018D                     	;# 
  1246  0191                     	;# 
  1247  0191                     	;# 
  1248  0192                     	;# 
  1249  0193                     	;# 
  1250  0193                     	;# 
  1251  0193                     	;# 
  1252  0194                     	;# 
  1253  0195                     	;# 
  1254  0196                     	;# 
  1255  0199                     	;# 
  1256  019A                     	;# 
  1257  019B                     	;# 
  1258  019B                     	;# 
  1259  019B                     	;# 
  1260  019B                     	;# 
  1261  019C                     	;# 
  1262  019C                     	;# 
  1263  019D                     	;# 
  1264  019E                     	;# 
  1265  019F                     	;# 
  1266  020C                     	;# 
  1267  020D                     	;# 
  1268  0211                     	;# 
  1269  0211                     	;# 
  1270  0212                     	;# 
  1271  0212                     	;# 
  1272  0213                     	;# 
  1273  0213                     	;# 
  1274  0214                     	;# 
  1275  0214                     	;# 
  1276  0215                     	;# 
  1277  0215                     	;# 
  1278  0215                     	;# 
  1279  0216                     	;# 
  1280  0216                     	;# 
  1281  0217                     	;# 
  1282  0217                     	;# 
  1283  0219                     	;# 
  1284  021A                     	;# 
  1285  021B                     	;# 
  1286  021C                     	;# 
  1287  021D                     	;# 
  1288  021E                     	;# 
  1289  021F                     	;# 
  1290  0291                     	;# 
  1291  0291                     	;# 
  1292  0292                     	;# 
  1293  0293                     	;# 
  1294  0294                     	;# 
  1295  0295                     	;# 
  1296  0295                     	;# 
  1297  0296                     	;# 
  1298  0298                     	;# 
  1299  0298                     	;# 
  1300  0299                     	;# 
  1301  029A                     	;# 
  1302  029B                     	;# 
  1303  029C                     	;# 
  1304  029C                     	;# 
  1305  029D                     	;# 
  1306  029E                     	;# 
  1307  029E                     	;# 
  1308  0311                     	;# 
  1309  0311                     	;# 
  1310  0312                     	;# 
  1311  0313                     	;# 
  1312  0318                     	;# 
  1313  0318                     	;# 
  1314  0319                     	;# 
  1315  031A                     	;# 
  1316  0394                     	;# 
  1317  0395                     	;# 
  1318  0396                     	;# 
  1319  039A                     	;# 
  1320  039C                     	;# 
  1321  039D                     	;# 
  1322  039E                     	;# 
  1323  039F                     	;# 
  1324  0415                     	;# 
  1325  0416                     	;# 
  1326  0417                     	;# 
  1327  041C                     	;# 
  1328  041D                     	;# 
  1329  041E                     	;# 
  1330  0FE4                     	;# 
  1331  0FE5                     	;# 
  1332  0FE6                     	;# 
  1333  0FE7                     	;# 
  1334  0FE8                     	;# 
  1335  0FE9                     	;# 
  1336  0FEA                     	;# 
  1337  0FEB                     	;# 
  1338  0FED                     	;# 
  1339  0FEE                     	;# 
  1340  0FEF                     	;# 
  1341                           
  1342 ;; Function _EUSART_DefaultFramingErrorHandler is unused but had its address taken
  1343  0000                     
  1344 ;; Function _EUSART_DefaultOverrunErrorHandler is unused but had its address taken
  1345  0000                     
  1346 ;; Function _EUSART_DefaultErrorHandler is unused but had its address taken
  1347  0000                     
  1348                           	psect	nvBANK0
  1349  0034                     __pnvBANK0:
  1350  0034                     _EUSART_ErrorHandler:
  1351  0034                     	ds	2
  1352  0036                     _EUSART_OverrunErrorHandler:
  1353  0036                     	ds	2
  1354  0038                     _EUSART_FramingErrorHandler:
  1355  0038                     	ds	2
  1356  000D                     _PORTBbits	set	13
  1357  000C                     _PORTAbits	set	12
  1358  001C                     _T2CONbits	set	28
  1359  001C                     _T2CON	set	28
  1360  0011                     _PIR1bits	set	17
  1361  001A                     _TMR2	set	26
  1362  001B                     _PR2	set	27
  1363  0095                     _OPTION_REGbits	set	149
  1364  008D                     _TRISB	set	141
  1365  008C                     _TRISA	set	140
  1366  0097                     _WDTCON	set	151
  1367  0098                     _OSCTUNE	set	152
  1368  0099                     _OSCCON	set	153
  1369  010C                     _LATAbits	set	268
  1370  010D                     _LATBbits	set	269
  1371  011E                     _APFCON1	set	286
  1372  011D                     _APFCON0	set	285
  1373  010D                     _LATB	set	269
  1374  010C                     _LATA	set	268
  1375  0116                     _BORCON	set	278
  1376  019A                     _TXREG	set	410
  1377  0199                     _RCREG	set	409
  1378  019D                     _RCSTAbits	set	413
  1379  019E                     _TXSTAbits	set	414
  1380  019C                     _SPBRGH	set	412
  1381  019B                     _SPBRGL	set	411
  1382  019E                     _TXSTA	set	414
  1383  019D                     _RCSTA	set	413
  1384  019F                     _BAUDCON	set	415
  1385  018C                     _ANSELA	set	396
  1386  018D                     _ANSELB	set	397
  1387  020C                     _WPUA	set	524
  1388  020D                     _WPUB	set	525
  1389  029E                     _CCPTMRS0bits	set	670
  1390  0312                     _CCPR3H	set	786
  1391  0311                     _CCPR3L	set	785
  1392  0313                     _CCP3CON	set	787
  1393  0319                     _CCPR4H	set	793
  1394  0318                     _CCPR4L	set	792
  1395  031A                     _CCP4CON	set	794
  1396                           
  1397                           	psect	cinit
  1398  07ED                     start_initialization:	
  1399                           ; #config settings
  1400                           
  1401  07ED                     __initialization:
  1402                           
  1403                           ; Clear objects allocated to COMMON
  1404  07ED  3070               	movlw	low __pbssCOMMON
  1405  07EE  0084               	movwf	4
  1406  07EF  3000               	movlw	high __pbssCOMMON
  1407  07F0  0085               	movwf	5
  1408  07F1  3008               	movlw	8
  1409  07F2  3184  24D2  3187   	fcall	clear_ram0
  1410                           
  1411                           ; Clear objects allocated to BANK0
  1412  07F5  3020               	movlw	low __pbssBANK0
  1413  07F6  0084               	movwf	4
  1414  07F7  3000               	movlw	high __pbssBANK0
  1415  07F8  0085               	movwf	5
  1416  07F9  3014               	movlw	20
  1417  07FA  3184  24D2  3187   	fcall	clear_ram0
  1418  07FD                     end_of_initialization:	
  1419                           ;End of C runtime variable initialization code
  1420                           
  1421  07FD                     __end_of__initialization:
  1422  07FD  0020               	movlb	0
  1423  07FE  3186  2E81         	ljmp	_main	;jump to C main() function
  1424                           
  1425                           	psect	bssCOMMON
  1426  0070                     __pbssCOMMON:
  1427  0070                     _state1:
  1428  0070                     	ds	2
  1429  0072                     _dem:
  1430  0072                     	ds	2
  1431  0074                     _speed:
  1432  0074                     	ds	2
  1433  0076                     _value:
  1434  0076                     	ds	1
  1435  0077                     _eusartRxLastError:
  1436  0077                     	ds	1
  1437                           
  1438                           	psect	bssBANK0
  1439  0020                     __pbssBANK0:
  1440  0020                     _CMD1:
  1441  0020                     	ds	10
  1442  002A                     _CMD:
  1443  002A                     	ds	10
  1444                           
  1445                           	psect	clrtext
  1446  04D2                     clear_ram0:	
  1447                           ;	Called with FSR0 containing the base address, and
  1448                           ;	WREG with the size to clear
  1449                           
  1450  04D2  0064               	clrwdt	;clear the watchdog before getting into this loop
  1451  04D3                     clrloop0:
  1452  04D3  0180               	clrf	0	;clear RAM location pointed to by FSR
  1453  04D4  3101               	addfsr 0,1
  1454  04D5  0B89               	decfsz	9,f	;Have we reached the end of clearing yet?
  1455  04D6  2CD3               	goto	clrloop0	;have we reached the end yet?
  1456  04D7  3400               	retlw	0	;all done for this memory range, return
  1457                           
  1458                           	psect	cstackCOMMON
  1459  0078                     __pcstackCOMMON:
  1460  0078                     ?_PIN_MANAGER_Initialize:
  1461  0078                     ??_PIN_MANAGER_Initialize:	
  1462                           ; 1 bytes @ 0x0
  1463                           
  1464  0078                     ?_OSCILLATOR_Initialize:	
  1465                           ; 1 bytes @ 0x0
  1466                           
  1467  0078                     ??_OSCILLATOR_Initialize:	
  1468                           ; 1 bytes @ 0x0
  1469                           
  1470  0078                     ?_WDT_Initialize:	
  1471                           ; 1 bytes @ 0x0
  1472                           
  1473  0078                     ??_WDT_Initialize:	
  1474                           ; 1 bytes @ 0x0
  1475                           
  1476  0078                     ?_PWM4_Initialize:	
  1477                           ; 1 bytes @ 0x0
  1478                           
  1479  0078                     ??_PWM4_Initialize:	
  1480                           ; 1 bytes @ 0x0
  1481                           
  1482  0078                     ?_PWM3_Initialize:	
  1483                           ; 1 bytes @ 0x0
  1484                           
  1485  0078                     ??_PWM3_Initialize:	
  1486                           ; 1 bytes @ 0x0
  1487                           
  1488  0078                     ?_TMR2_Initialize:	
  1489                           ; 1 bytes @ 0x0
  1490                           
  1491  0078                     ??_TMR2_Initialize:	
  1492                           ; 1 bytes @ 0x0
  1493                           
  1494  0078                     ?_EUSART_Initialize:	
  1495                           ; 1 bytes @ 0x0
  1496                           
  1497  0078                     ?_EUSART_SetFramingErrorHandler:	
  1498                           ; 1 bytes @ 0x0
  1499                           
  1500  0078                     ?_EUSART_SetOverrunErrorHandler:	
  1501                           ; 1 bytes @ 0x0
  1502                           
  1503  0078                     ?_EUSART_SetErrorHandler:	
  1504                           ; 1 bytes @ 0x0
  1505                           
  1506  0078                     ?_SYSTEM_Initialize:	
  1507                           ; 1 bytes @ 0x0
  1508                           
  1509  0078                     ?_PWM4_LoadDutyValue:	
  1510                           ; 1 bytes @ 0x0
  1511                           
  1512  0078                     ?_PWM3_LoadDutyValue:	
  1513                           ; 1 bytes @ 0x0
  1514                           
  1515  0078                     ?_EUSART_is_rx_ready:	
  1516                           ; 1 bytes @ 0x0
  1517                           
  1518  0078                     ??_EUSART_is_rx_ready:	
  1519                           ; 1 bytes @ 0x0
  1520                           
  1521  0078                     ?_EUSART_Read:	
  1522                           ; 1 bytes @ 0x0
  1523                           
  1524  0078                     ??_EUSART_Read:	
  1525                           ; 1 bytes @ 0x0
  1526                           
  1527  0078                     ?_MotorRight_set_direction:	
  1528                           ; 1 bytes @ 0x0
  1529                           
  1530  0078                     ??_MotorRight_set_direction:	
  1531                           ; 1 bytes @ 0x0
  1532                           
  1533  0078                     ?_MotorLeft_set_direction:	
  1534                           ; 1 bytes @ 0x0
  1535                           
  1536  0078                     ??_MotorLeft_set_direction:	
  1537                           ; 1 bytes @ 0x0
  1538                           
  1539  0078                     ?_Servo_Motion_CW:	
  1540                           ; 1 bytes @ 0x0
  1541                           
  1542  0078                     ??_Servo_Motion_CW:	
  1543                           ; 1 bytes @ 0x0
  1544                           
  1545  0078                     ?_Servo_Motion_CCW:	
  1546                           ; 1 bytes @ 0x0
  1547                           
  1548  0078                     ??_Servo_Motion_CCW:	
  1549                           ; 1 bytes @ 0x0
  1550                           
  1551  0078                     ?_Dilui:	
  1552                           ; 1 bytes @ 0x0
  1553                           
  1554  0078                     ?_Retrai:	
  1555                           ; 1 bytes @ 0x0
  1556                           
  1557  0078                     ?_Rephai:	
  1558                           ; 1 bytes @ 0x0
  1559                           
  1560  0078                     ?_Dithang:	
  1561                           ; 1 bytes @ 0x0
  1562                           
  1563  0078                     ?_Dunglai:	
  1564                           ; 1 bytes @ 0x0
  1565                           
  1566  0078                     ?_Bluetooth:	
  1567                           ; 1 bytes @ 0x0
  1568                           
  1569  0078                     ?_Doline_Cong:	
  1570                           ; 1 bytes @ 0x0
  1571                           
  1572  0078                     ?_Kep:	
  1573                           ; 1 bytes @ 0x0
  1574                           
  1575  0078                     ?_main:	
  1576                           ; 1 bytes @ 0x0
  1577                           
  1578  0078                     MotorRight_set_direction@dir:	
  1579                           ; 1 bytes @ 0x0
  1580                           
  1581  0078                     MotorLeft_set_direction@dir:	
  1582                           ; 1 bytes @ 0x0
  1583                           
  1584  0078                     PWM4_LoadDutyValue@dutyValue:	
  1585                           ; 1 bytes @ 0x0
  1586                           
  1587  0078                     PWM3_LoadDutyValue@dutyValue:	
  1588                           ; 2 bytes @ 0x0
  1589                           
  1590  0078                     EUSART_SetFramingErrorHandler@interruptHandler:	
  1591                           ; 2 bytes @ 0x0
  1592                           
  1593  0078                     EUSART_SetOverrunErrorHandler@interruptHandler:	
  1594                           ; 2 bytes @ 0x0
  1595                           
  1596  0078                     EUSART_SetErrorHandler@interruptHandler:	
  1597                           ; 2 bytes @ 0x0
  1598                           
  1599                           
  1600                           ; 2 bytes @ 0x0
  1601  0078                     	ds	1
  1602  0079                     Servo_Motion_CW@i:
  1603  0079                     Servo_Motion_CCW@i:	
  1604                           ; 2 bytes @ 0x1
  1605                           
  1606                           
  1607                           ; 2 bytes @ 0x1
  1608  0079                     	ds	1
  1609  007A                     ??_EUSART_Initialize:
  1610  007A                     ??_EUSART_SetFramingErrorHandler:	
  1611                           ; 1 bytes @ 0x2
  1612                           
  1613  007A                     ??_EUSART_SetOverrunErrorHandler:	
  1614                           ; 1 bytes @ 0x2
  1615                           
  1616  007A                     ??_EUSART_SetErrorHandler:	
  1617                           ; 1 bytes @ 0x2
  1618                           
  1619  007A                     ??_SYSTEM_Initialize:	
  1620                           ; 1 bytes @ 0x2
  1621                           
  1622  007A                     ??_PWM4_LoadDutyValue:	
  1623                           ; 1 bytes @ 0x2
  1624                           
  1625  007A                     ??_PWM3_LoadDutyValue:	
  1626                           ; 1 bytes @ 0x2
  1627                           
  1628                           
  1629                           ; 1 bytes @ 0x2
  1630  007A                     	ds	2
  1631  007C                     ??_Dilui:
  1632  007C                     ??_Retrai:	
  1633                           ; 1 bytes @ 0x4
  1634                           
  1635  007C                     ??_Rephai:	
  1636                           ; 1 bytes @ 0x4
  1637                           
  1638  007C                     ??_Dithang:	
  1639                           ; 1 bytes @ 0x4
  1640                           
  1641  007C                     ??_Dunglai:	
  1642                           ; 1 bytes @ 0x4
  1643                           
  1644  007C                     ??_Bluetooth:	
  1645                           ; 1 bytes @ 0x4
  1646                           
  1647  007C                     ??_Doline_Cong:	
  1648                           ; 1 bytes @ 0x4
  1649                           
  1650  007C                     ??_Kep:	
  1651                           ; 1 bytes @ 0x4
  1652                           
  1653                           
  1654                           ; 1 bytes @ 0x4
  1655  007C                     	ds	1
  1656  007D                     ??_main:
  1657                           
  1658                           ; 1 bytes @ 0x5
  1659  007D                     	ds	1
  1660                           
  1661                           	psect	maintext
  1662  0681                     __pmaintext:	
  1663 ;;
  1664 ;;Main: autosize = 0, tempsize = 1, incstack = 0, save=0
  1665 ;;
  1666 ;; *************** function _main *****************
  1667 ;; Defined at:
  1668 ;;		line 251 in file "main.c"
  1669 ;; Parameters:    Size  Location     Type
  1670 ;;		None
  1671 ;; Auto vars:     Size  Location     Type
  1672 ;;		None
  1673 ;; Return value:  Size  Location     Type
  1674 ;;                  1    wreg      void 
  1675 ;; Registers used:
  1676 ;;		wreg, status,2, status,0, pclath, cstack
  1677 ;; Tracked objects:
  1678 ;;		On entry : B1F/0
  1679 ;;		On exit  : 0/0
  1680 ;;		Unchanged: 0/0
  1681 ;; Data sizes:     COMMON   BANK0   BANK1   BANK2   BANK3   BANK4
  1682 ;;      Params:         0       0       0       0       0       0
  1683 ;;      Locals:         0       0       0       0       0       0
  1684 ;;      Temps:          1       0       0       0       0       0
  1685 ;;      Totals:         1       0       0       0       0       0
  1686 ;;Total ram usage:        1 bytes
  1687 ;; Hardware stack levels required when called: 3
  1688 ;; This function calls:
  1689 ;;		_Bluetooth
  1690 ;;		_Dithang
  1691 ;;		_Doline_Cong
  1692 ;;		_Kep
  1693 ;;		_SYSTEM_Initialize
  1694 ;; This function is called by:
  1695 ;;		Startup code after reset
  1696 ;; This function uses a non-reentrant model
  1697 ;;
  1698                           
  1699  0681                     _main:	
  1700                           ;psect for function _main
  1701                           
  1702  0681                     l1797:	
  1703                           ;incstack = 0
  1704                           ; Regs used in _main: [wreg+status,2+status,0+pclath+cstack]
  1705                           
  1706                           
  1707                           ;main.c: 252:     SYSTEM_Initialize();
  1708  0681  3185  256B  3186   	fcall	_SYSTEM_Initialize
  1709  0684  2E95               	goto	l1805
  1710  0685                     l1799:
  1711                           
  1712                           ;main.c: 255:             Dithang();
  1713  0685  3185  25C6  3186   	fcall	_Dithang
  1714  0688                     l1801:
  1715                           
  1716                           ;main.c: 256:             _delay((unsigned long)((100)*(4000000/4000.0)));
  1717  0688  3082               	movlw	130
  1718  0689  00FD               	movwf	??_main
  1719  068A  30DE               	movlw	222
  1720  068B                     u2167:
  1721  068B  0B89               	decfsz	9,f
  1722  068C  2E8B               	goto	u2167
  1723  068D  0BFD               	decfsz	??_main,f
  1724  068E  2E8B               	goto	u2167
  1725  068F                     l1803:
  1726                           
  1727                           ;main.c: 257:             dem = dem +1;
  1728  068F  0872               	movf	_dem,w
  1729  0690  3E01               	addlw	1
  1730  0691  00F2               	movwf	_dem
  1731  0692  3000               	movlw	0
  1732  0693  3D73               	addwfc	_dem+1,w
  1733  0694  00F3               	movwf	_dem+1
  1734  0695                     l1805:
  1735                           
  1736                           ;main.c: 254:         while (dem==0){
  1737  0695  0872               	movf	_dem,w
  1738  0696  0473               	iorwf	_dem+1,w
  1739  0697  1903               	btfsc	3,2
  1740  0698  2E9A               	goto	u2111
  1741  0699  2E9B               	goto	u2110
  1742  069A                     u2111:
  1743  069A  2E85               	goto	l1799
  1744  069B                     u2110:
  1745  069B  2E9F               	goto	l1809
  1746  069C                     l1807:
  1747                           
  1748                           ;main.c: 260:             Doline_Cong();
  1749  069C  3186  26BF  3186   	fcall	_Doline_Cong
  1750  069F                     l1809:
  1751                           
  1752                           ;main.c: 259:         while ((PORTBbits.RB5 == 1)&&(dem == 1)){
  1753  069F  0020               	movlb	0	; select bank0
  1754  06A0  1E8D               	btfss	13,5	;volatile
  1755  06A1  2EA3               	goto	u2121
  1756  06A2  2EA4               	goto	u2120
  1757  06A3                     u2121:
  1758  06A3  2EAA               	goto	l406
  1759  06A4                     u2120:
  1760  06A4                     l1811:
  1761  06A4  0372               	decf	_dem,w
  1762  06A5  0473               	iorwf	_dem+1,w
  1763  06A6  1903               	btfsc	3,2
  1764  06A7  2EA9               	goto	u2131
  1765  06A8  2EAA               	goto	u2130
  1766  06A9                     u2131:
  1767  06A9  2E9C               	goto	l1807
  1768  06AA                     u2130:
  1769  06AA                     l406:
  1770                           
  1771                           ;main.c: 262:         if (PORTBbits.RB5 == 0){
  1772  06AA  1A8D               	btfsc	13,5	;volatile
  1773  06AB  2EAD               	goto	u2141
  1774  06AC  2EAE               	goto	u2140
  1775  06AD                     u2141:
  1776  06AD  2EB5               	goto	l1817
  1777  06AE                     u2140:
  1778  06AE                     l1813:
  1779                           
  1780                           ;main.c: 263:             Kep();
  1781  06AE  3184  24F9  3186   	fcall	_Kep
  1782  06B1  2EB5               	goto	l1817
  1783  06B2                     l1815:
  1784                           
  1785                           ;main.c: 266:             Bluetooth();
  1786  06B2  3187  2735  3186   	fcall	_Bluetooth
  1787  06B5                     l1817:
  1788                           
  1789                           ;main.c: 265:         while (dem == 2){
  1790  06B5  3002               	movlw	2
  1791  06B6  0672               	xorwf	_dem,w
  1792  06B7  0473               	iorwf	_dem+1,w
  1793  06B8  1903               	btfsc	3,2
  1794  06B9  2EBB               	goto	u2151
  1795  06BA  2EBC               	goto	u2150
  1796  06BB                     u2151:
  1797  06BB  2EB2               	goto	l1815
  1798  06BC                     u2150:
  1799  06BC  2E95               	goto	l1805
  1800  06BD  3180  2802         	ljmp	start
  1801  06BF                     __end_of_main:
  1802                           
  1803                           	psect	text1
  1804  056B                     __ptext1:	
  1805 ;; *************** function _SYSTEM_Initialize *****************
  1806 ;; Defined at:
  1807 ;;		line 50 in file "mcc_generated_files/mcc.c"
  1808 ;; Parameters:    Size  Location     Type
  1809 ;;		None
  1810 ;; Auto vars:     Size  Location     Type
  1811 ;;		None
  1812 ;; Return value:  Size  Location     Type
  1813 ;;                  1    wreg      void 
  1814 ;; Registers used:
  1815 ;;		wreg, status,2, status,0, pclath, cstack
  1816 ;; Tracked objects:
  1817 ;;		On entry : 0/0
  1818 ;;		On exit  : 0/0
  1819 ;;		Unchanged: 0/0
  1820 ;; Data sizes:     COMMON   BANK0   BANK1   BANK2   BANK3   BANK4
  1821 ;;      Params:         0       0       0       0       0       0
  1822 ;;      Locals:         0       0       0       0       0       0
  1823 ;;      Temps:          0       0       0       0       0       0
  1824 ;;      Totals:         0       0       0       0       0       0
  1825 ;;Total ram usage:        0 bytes
  1826 ;; Hardware stack levels used: 1
  1827 ;; Hardware stack levels required when called: 2
  1828 ;; This function calls:
  1829 ;;		_EUSART_Initialize
  1830 ;;		_OSCILLATOR_Initialize
  1831 ;;		_PIN_MANAGER_Initialize
  1832 ;;		_PWM3_Initialize
  1833 ;;		_PWM4_Initialize
  1834 ;;		_TMR2_Initialize
  1835 ;;		_WDT_Initialize
  1836 ;; This function is called by:
  1837 ;;		_main
  1838 ;; This function uses a non-reentrant model
  1839 ;;
  1840                           
  1841  056B                     _SYSTEM_Initialize:	
  1842                           ;psect for function _SYSTEM_Initialize
  1843                           
  1844  056B                     l1551:	
  1845                           ;incstack = 0
  1846                           ; Regs used in _SYSTEM_Initialize: [wreg+status,2+status,0+pclath+cstack]
  1847                           
  1848                           
  1849                           ;mcc_generated_files/mcc.c: 53:     PIN_MANAGER_Initialize();
  1850  056B  3185  252A  3185   	fcall	_PIN_MANAGER_Initialize
  1851                           
  1852                           ;mcc_generated_files/mcc.c: 54:     OSCILLATOR_Initialize();
  1853  056E  3184  24D8  3185   	fcall	_OSCILLATOR_Initialize
  1854                           
  1855                           ;mcc_generated_files/mcc.c: 55:     WDT_Initialize();
  1856  0571  3184  24B7  3185   	fcall	_WDT_Initialize
  1857                           
  1858                           ;mcc_generated_files/mcc.c: 56:     PWM4_Initialize();
  1859  0574  3184  24F0  3185   	fcall	_PWM4_Initialize
  1860                           
  1861                           ;mcc_generated_files/mcc.c: 57:     PWM3_Initialize();
  1862  0577  3184  24E7  3185   	fcall	_PWM3_Initialize
  1863                           
  1864                           ;mcc_generated_files/mcc.c: 58:     TMR2_Initialize();
  1865  057A  3184  24DF  3185   	fcall	_TMR2_Initialize
  1866                           
  1867                           ;mcc_generated_files/mcc.c: 59:     EUSART_Initialize();
  1868  057D  3186  2617  3185   	fcall	_EUSART_Initialize
  1869  0580                     l25:
  1870  0580  0008               	return
  1871  0581                     __end_of_SYSTEM_Initialize:
  1872                           
  1873                           	psect	text2
  1874  04B7                     __ptext2:	
  1875 ;; *************** function _WDT_Initialize *****************
  1876 ;; Defined at:
  1877 ;;		line 72 in file "mcc_generated_files/mcc.c"
  1878 ;; Parameters:    Size  Location     Type
  1879 ;;		None
  1880 ;; Auto vars:     Size  Location     Type
  1881 ;;		None
  1882 ;; Return value:  Size  Location     Type
  1883 ;;                  1    wreg      void 
  1884 ;; Registers used:
  1885 ;;		wreg
  1886 ;; Tracked objects:
  1887 ;;		On entry : 0/0
  1888 ;;		On exit  : 0/0
  1889 ;;		Unchanged: 0/0
  1890 ;; Data sizes:     COMMON   BANK0   BANK1   BANK2   BANK3   BANK4
  1891 ;;      Params:         0       0       0       0       0       0
  1892 ;;      Locals:         0       0       0       0       0       0
  1893 ;;      Temps:          0       0       0       0       0       0
  1894 ;;      Totals:         0       0       0       0       0       0
  1895 ;;Total ram usage:        0 bytes
  1896 ;; Hardware stack levels used: 1
  1897 ;; This function calls:
  1898 ;;		Nothing
  1899 ;; This function is called by:
  1900 ;;		_SYSTEM_Initialize
  1901 ;; This function uses a non-reentrant model
  1902 ;;
  1903                           
  1904  04B7                     _WDT_Initialize:	
  1905                           ;psect for function _WDT_Initialize
  1906                           
  1907  04B7                     l1079:	
  1908                           ;incstack = 0
  1909                           ; Regs used in _WDT_Initialize: [wreg]
  1910                           
  1911                           
  1912                           ;mcc_generated_files/mcc.c: 75:     WDTCON = 0x16;
  1913  04B7  3016               	movlw	22
  1914  04B8  0021               	movlb	1	; select bank1
  1915  04B9  0097               	movwf	23	;volatile
  1916  04BA                     l31:
  1917  04BA  0008               	return
  1918  04BB                     __end_of_WDT_Initialize:
  1919                           
  1920                           	psect	text3
  1921  04DF                     __ptext3:	
  1922 ;; *************** function _TMR2_Initialize *****************
  1923 ;; Defined at:
  1924 ;;		line 62 in file "mcc_generated_files/tmr2.c"
  1925 ;; Parameters:    Size  Location     Type
  1926 ;;		None
  1927 ;; Auto vars:     Size  Location     Type
  1928 ;;		None
  1929 ;; Return value:  Size  Location     Type
  1930 ;;                  1    wreg      void 
  1931 ;; Registers used:
  1932 ;;		wreg, status,2
  1933 ;; Tracked objects:
  1934 ;;		On entry : 0/0
  1935 ;;		On exit  : 0/0
  1936 ;;		Unchanged: 0/0
  1937 ;; Data sizes:     COMMON   BANK0   BANK1   BANK2   BANK3   BANK4
  1938 ;;      Params:         0       0       0       0       0       0
  1939 ;;      Locals:         0       0       0       0       0       0
  1940 ;;      Temps:          0       0       0       0       0       0
  1941 ;;      Totals:         0       0       0       0       0       0
  1942 ;;Total ram usage:        0 bytes
  1943 ;; Hardware stack levels used: 1
  1944 ;; This function calls:
  1945 ;;		Nothing
  1946 ;; This function is called by:
  1947 ;;		_SYSTEM_Initialize
  1948 ;; This function uses a non-reentrant model
  1949 ;;
  1950                           
  1951  04DF                     _TMR2_Initialize:	
  1952                           ;psect for function _TMR2_Initialize
  1953                           
  1954  04DF                     l1097:	
  1955                           ;incstack = 0
  1956                           ; Regs used in _TMR2_Initialize: [wreg+status,2]
  1957                           
  1958                           
  1959                           ;mcc_generated_files/tmr2.c: 67:     PR2 = 0xF9;
  1960  04DF  30F9               	movlw	249
  1961  04E0  0020               	movlb	0	; select bank0
  1962  04E1  009B               	movwf	27	;volatile
  1963  04E2                     l1099:
  1964                           
  1965                           ;mcc_generated_files/tmr2.c: 70:     TMR2 = 0x00;
  1966  04E2  019A               	clrf	26	;volatile
  1967  04E3                     l1101:
  1968                           
  1969                           ;mcc_generated_files/tmr2.c: 73:     PIR1bits.TMR2IF = 0;
  1970  04E3  1091               	bcf	17,1	;volatile
  1971  04E4                     l1103:
  1972                           
  1973                           ;mcc_generated_files/tmr2.c: 76:     T2CON = 0x04;
  1974  04E4  3004               	movlw	4
  1975  04E5  009C               	movwf	28	;volatile
  1976  04E6                     l100:
  1977  04E6  0008               	return
  1978  04E7                     __end_of_TMR2_Initialize:
  1979                           
  1980                           	psect	text4
  1981  04F0                     __ptext4:	
  1982 ;; *************** function _PWM4_Initialize *****************
  1983 ;; Defined at:
  1984 ;;		line 64 in file "mcc_generated_files/pwm4.c"
  1985 ;; Parameters:    Size  Location     Type
  1986 ;;		None
  1987 ;; Auto vars:     Size  Location     Type
  1988 ;;		None
  1989 ;; Return value:  Size  Location     Type
  1990 ;;                  1    wreg      void 
  1991 ;; Registers used:
  1992 ;;		wreg, status,2, status,0
  1993 ;; Tracked objects:
  1994 ;;		On entry : 0/0
  1995 ;;		On exit  : 0/0
  1996 ;;		Unchanged: 0/0
  1997 ;; Data sizes:     COMMON   BANK0   BANK1   BANK2   BANK3   BANK4
  1998 ;;      Params:         0       0       0       0       0       0
  1999 ;;      Locals:         0       0       0       0       0       0
  2000 ;;      Temps:          0       0       0       0       0       0
  2001 ;;      Totals:         0       0       0       0       0       0
  2002 ;;Total ram usage:        0 bytes
  2003 ;; Hardware stack levels used: 1
  2004 ;; This function calls:
  2005 ;;		Nothing
  2006 ;; This function is called by:
  2007 ;;		_SYSTEM_Initialize
  2008 ;; This function uses a non-reentrant model
  2009 ;;
  2010                           
  2011  04F0                     _PWM4_Initialize:	
  2012                           ;psect for function _PWM4_Initialize
  2013                           
  2014  04F0                     l1081:	
  2015                           ;incstack = 0
  2016                           ; Regs used in _PWM4_Initialize: [wreg+status,2+status,0]
  2017                           
  2018                           
  2019                           ;mcc_generated_files/pwm4.c: 69:  CCP4CON = 0x0C;
  2020  04F0  300C               	movlw	12
  2021  04F1  0026               	movlb	6	; select bank6
  2022  04F2  009A               	movwf	26	;volatile
  2023  04F3                     l1083:
  2024                           
  2025                           ;mcc_generated_files/pwm4.c: 72:  CCPR4L = 0x00;
  2026  04F3  0198               	clrf	24	;volatile
  2027  04F4                     l1085:
  2028                           
  2029                           ;mcc_generated_files/pwm4.c: 75:  CCPR4H = 0x00;
  2030  04F4  0199               	clrf	25	;volatile
  2031  04F5                     l1087:
  2032                           
  2033                           ;mcc_generated_files/pwm4.c: 78:  CCPTMRS0bits.C4TSEL = 0x0;
  2034  04F5  303F               	movlw	-193
  2035  04F6  0025               	movlb	5	; select bank5
  2036  04F7  059E               	andwf	30,f	;volatile
  2037  04F8                     l42:
  2038  04F8  0008               	return
  2039  04F9                     __end_of_PWM4_Initialize:
  2040                           
  2041                           	psect	text5
  2042  04E7                     __ptext5:	
  2043 ;; *************** function _PWM3_Initialize *****************
  2044 ;; Defined at:
  2045 ;;		line 64 in file "mcc_generated_files/pwm3.c"
  2046 ;; Parameters:    Size  Location     Type
  2047 ;;		None
  2048 ;; Auto vars:     Size  Location     Type
  2049 ;;		None
  2050 ;; Return value:  Size  Location     Type
  2051 ;;                  1    wreg      void 
  2052 ;; Registers used:
  2053 ;;		wreg, status,2, status,0
  2054 ;; Tracked objects:
  2055 ;;		On entry : 0/0
  2056 ;;		On exit  : 0/0
  2057 ;;		Unchanged: 0/0
  2058 ;; Data sizes:     COMMON   BANK0   BANK1   BANK2   BANK3   BANK4
  2059 ;;      Params:         0       0       0       0       0       0
  2060 ;;      Locals:         0       0       0       0       0       0
  2061 ;;      Temps:          0       0       0       0       0       0
  2062 ;;      Totals:         0       0       0       0       0       0
  2063 ;;Total ram usage:        0 bytes
  2064 ;; Hardware stack levels used: 1
  2065 ;; This function calls:
  2066 ;;		Nothing
  2067 ;; This function is called by:
  2068 ;;		_SYSTEM_Initialize
  2069 ;; This function uses a non-reentrant model
  2070 ;;
  2071                           
  2072  04E7                     _PWM3_Initialize:	
  2073                           ;psect for function _PWM3_Initialize
  2074                           
  2075  04E7                     l1089:	
  2076                           ;incstack = 0
  2077                           ; Regs used in _PWM3_Initialize: [wreg+status,2+status,0]
  2078                           
  2079                           
  2080                           ;mcc_generated_files/pwm3.c: 69:  CCP3CON = 0x0C;
  2081  04E7  300C               	movlw	12
  2082  04E8  0026               	movlb	6	; select bank6
  2083  04E9  0093               	movwf	19	;volatile
  2084  04EA                     l1091:
  2085                           
  2086                           ;mcc_generated_files/pwm3.c: 72:  CCPR3L = 0x00;
  2087  04EA  0191               	clrf	17	;volatile
  2088  04EB                     l1093:
  2089                           
  2090                           ;mcc_generated_files/pwm3.c: 75:  CCPR3H = 0x00;
  2091  04EB  0192               	clrf	18	;volatile
  2092  04EC                     l1095:
  2093                           
  2094                           ;mcc_generated_files/pwm3.c: 78:  CCPTMRS0bits.C3TSEL = 0x0;
  2095  04EC  30CF               	movlw	-49
  2096  04ED  0025               	movlb	5	; select bank5
  2097  04EE  059E               	andwf	30,f	;volatile
  2098  04EF                     l56:
  2099  04EF  0008               	return
  2100  04F0                     __end_of_PWM3_Initialize:
  2101                           
  2102                           	psect	text6
  2103  052A                     __ptext6:	
  2104 ;; *************** function _PIN_MANAGER_Initialize *****************
  2105 ;; Defined at:
  2106 ;;		line 55 in file "mcc_generated_files/pin_manager.c"
  2107 ;; Parameters:    Size  Location     Type
  2108 ;;		None
  2109 ;; Auto vars:     Size  Location     Type
  2110 ;;		None
  2111 ;; Return value:  Size  Location     Type
  2112 ;;                  1    wreg      void 
  2113 ;; Registers used:
  2114 ;;		wreg, status,2
  2115 ;; Tracked objects:
  2116 ;;		On entry : 0/0
  2117 ;;		On exit  : 0/0
  2118 ;;		Unchanged: 0/0
  2119 ;; Data sizes:     COMMON   BANK0   BANK1   BANK2   BANK3   BANK4
  2120 ;;      Params:         0       0       0       0       0       0
  2121 ;;      Locals:         0       0       0       0       0       0
  2122 ;;      Temps:          0       0       0       0       0       0
  2123 ;;      Totals:         0       0       0       0       0       0
  2124 ;;Total ram usage:        0 bytes
  2125 ;; Hardware stack levels used: 1
  2126 ;; This function calls:
  2127 ;;		Nothing
  2128 ;; This function is called by:
  2129 ;;		_SYSTEM_Initialize
  2130 ;; This function uses a non-reentrant model
  2131 ;;
  2132                           
  2133  052A                     _PIN_MANAGER_Initialize:	
  2134                           ;psect for function _PIN_MANAGER_Initialize
  2135                           
  2136  052A                     l1055:	
  2137                           ;incstack = 0
  2138                           ; Regs used in _PIN_MANAGER_Initialize: [wreg+status,2]
  2139                           
  2140                           
  2141                           ;mcc_generated_files/pin_manager.c: 60:     LATA = 0x00;
  2142  052A  0022               	movlb	2	; select bank2
  2143  052B  018C               	clrf	12	;volatile
  2144                           
  2145                           ;mcc_generated_files/pin_manager.c: 61:     LATB = 0x00;
  2146  052C  018D               	clrf	13	;volatile
  2147  052D                     l1057:
  2148                           
  2149                           ;mcc_generated_files/pin_manager.c: 66:     TRISA = 0x67;
  2150  052D  3067               	movlw	103
  2151  052E  0021               	movlb	1	; select bank1
  2152  052F  008C               	movwf	12	;volatile
  2153  0530                     l1059:
  2154                           
  2155                           ;mcc_generated_files/pin_manager.c: 67:     TRISB = 0x27;
  2156  0530  3027               	movlw	39
  2157  0531  008D               	movwf	13	;volatile
  2158                           
  2159                           ;mcc_generated_files/pin_manager.c: 72:     ANSELB = 0x00;
  2160  0532  0023               	movlb	3	; select bank3
  2161  0533  018D               	clrf	13	;volatile
  2162  0534                     l1061:
  2163                           
  2164                           ;mcc_generated_files/pin_manager.c: 73:     ANSELA = 0x04;
  2165  0534  3004               	movlw	4
  2166  0535  008C               	movwf	12	;volatile
  2167  0536                     l1063:
  2168                           
  2169                           ;mcc_generated_files/pin_manager.c: 78:     WPUB = 0x00;
  2170  0536  0024               	movlb	4	; select bank4
  2171  0537  018D               	clrf	13	;volatile
  2172  0538                     l1065:
  2173                           
  2174                           ;mcc_generated_files/pin_manager.c: 79:     WPUA = 0x00;
  2175  0538  018C               	clrf	12	;volatile
  2176  0539                     l1067:
  2177                           
  2178                           ;mcc_generated_files/pin_manager.c: 80:     OPTION_REGbits.nWPUEN = 1;
  2179  0539  0021               	movlb	1	; select bank1
  2180  053A  1795               	bsf	21,7	;volatile
  2181  053B                     l1069:
  2182                           
  2183                           ;mcc_generated_files/pin_manager.c: 86:     APFCON0 = 0x00;
  2184  053B  0022               	movlb	2	; select bank2
  2185  053C  019D               	clrf	29	;volatile
  2186  053D                     l1071:
  2187                           
  2188                           ;mcc_generated_files/pin_manager.c: 87:     APFCON1 = 0x00;
  2189  053D  019E               	clrf	30	;volatile
  2190  053E                     l84:
  2191  053E  0008               	return
  2192  053F                     __end_of_PIN_MANAGER_Initialize:
  2193                           
  2194                           	psect	text7
  2195  04D8                     __ptext7:	
  2196 ;; *************** function _OSCILLATOR_Initialize *****************
  2197 ;; Defined at:
  2198 ;;		line 62 in file "mcc_generated_files/mcc.c"
  2199 ;; Parameters:    Size  Location     Type
  2200 ;;		None
  2201 ;; Auto vars:     Size  Location     Type
  2202 ;;		None
  2203 ;; Return value:  Size  Location     Type
  2204 ;;                  1    wreg      void 
  2205 ;; Registers used:
  2206 ;;		wreg, status,2
  2207 ;; Tracked objects:
  2208 ;;		On entry : 0/0
  2209 ;;		On exit  : 0/0
  2210 ;;		Unchanged: 0/0
  2211 ;; Data sizes:     COMMON   BANK0   BANK1   BANK2   BANK3   BANK4
  2212 ;;      Params:         0       0       0       0       0       0
  2213 ;;      Locals:         0       0       0       0       0       0
  2214 ;;      Temps:          0       0       0       0       0       0
  2215 ;;      Totals:         0       0       0       0       0       0
  2216 ;;Total ram usage:        0 bytes
  2217 ;; Hardware stack levels used: 1
  2218 ;; This function calls:
  2219 ;;		Nothing
  2220 ;; This function is called by:
  2221 ;;		_SYSTEM_Initialize
  2222 ;; This function uses a non-reentrant model
  2223 ;;
  2224                           
  2225  04D8                     _OSCILLATOR_Initialize:	
  2226                           ;psect for function _OSCILLATOR_Initialize
  2227                           
  2228  04D8                     l1073:	
  2229                           ;incstack = 0
  2230                           ; Regs used in _OSCILLATOR_Initialize: [wreg+status,2]
  2231                           
  2232                           
  2233                           ;mcc_generated_files/mcc.c: 65:     OSCCON = 0x68;
  2234  04D8  3068               	movlw	104
  2235  04D9  0021               	movlb	1	; select bank1
  2236  04DA  0099               	movwf	25	;volatile
  2237  04DB                     l1075:
  2238                           
  2239                           ;mcc_generated_files/mcc.c: 67:     OSCTUNE = 0x00;
  2240  04DB  0198               	clrf	24	;volatile
  2241  04DC                     l1077:
  2242                           
  2243                           ;mcc_generated_files/mcc.c: 69:     BORCON = 0x00;
  2244  04DC  0022               	movlb	2	; select bank2
  2245  04DD  0196               	clrf	22	;volatile
  2246  04DE                     l28:
  2247  04DE  0008               	return
  2248  04DF                     __end_of_OSCILLATOR_Initialize:
  2249                           
  2250                           	psect	text8
  2251  0617                     __ptext8:	
  2252 ;; *************** function _EUSART_Initialize *****************
  2253 ;; Defined at:
  2254 ;;		line 66 in file "mcc_generated_files/eusart.c"
  2255 ;; Parameters:    Size  Location     Type
  2256 ;;		None
  2257 ;; Auto vars:     Size  Location     Type
  2258 ;;		None
  2259 ;; Return value:  Size  Location     Type
  2260 ;;                  1    wreg      void 
  2261 ;; Registers used:
  2262 ;;		wreg, status,2, status,0, pclath, cstack
  2263 ;; Tracked objects:
  2264 ;;		On entry : 0/0
  2265 ;;		On exit  : 0/0
  2266 ;;		Unchanged: 0/0
  2267 ;; Data sizes:     COMMON   BANK0   BANK1   BANK2   BANK3   BANK4
  2268 ;;      Params:         0       0       0       0       0       0
  2269 ;;      Locals:         0       0       0       0       0       0
  2270 ;;      Temps:          0       0       0       0       0       0
  2271 ;;      Totals:         0       0       0       0       0       0
  2272 ;;Total ram usage:        0 bytes
  2273 ;; Hardware stack levels used: 1
  2274 ;; Hardware stack levels required when called: 1
  2275 ;; This function calls:
  2276 ;;		_EUSART_SetErrorHandler
  2277 ;;		_EUSART_SetFramingErrorHandler
  2278 ;;		_EUSART_SetOverrunErrorHandler
  2279 ;; This function is called by:
  2280 ;;		_SYSTEM_Initialize
  2281 ;; This function uses a non-reentrant model
  2282 ;;
  2283                           
  2284  0617                     _EUSART_Initialize:	
  2285                           ;psect for function _EUSART_Initialize
  2286                           
  2287  0617                     l1503:	
  2288                           ;incstack = 0
  2289                           ; Regs used in _EUSART_Initialize: [wreg+status,2+status,0+pclath+cstack]
  2290                           
  2291                           
  2292                           ;mcc_generated_files/eusart.c: 71:     BAUDCON = 0x08;
  2293  0617  3008               	movlw	8
  2294  0618  0023               	movlb	3	; select bank3
  2295  0619  009F               	movwf	31	;volatile
  2296                           
  2297                           ;mcc_generated_files/eusart.c: 74:     RCSTA = 0x90;
  2298  061A  3090               	movlw	144
  2299  061B  009D               	movwf	29	;volatile
  2300                           
  2301                           ;mcc_generated_files/eusart.c: 77:     TXSTA = 0x24;
  2302  061C  3024               	movlw	36
  2303  061D  009E               	movwf	30	;volatile
  2304                           
  2305                           ;mcc_generated_files/eusart.c: 80:     SPBRGL = 0x67;
  2306  061E  3067               	movlw	103
  2307  061F  009B               	movwf	27	;volatile
  2308  0620                     l1505:
  2309                           
  2310                           ;mcc_generated_files/eusart.c: 83:     SPBRGH = 0x00;
  2311  0620  019C               	clrf	28	;volatile
  2312  0621                     l1507:
  2313                           
  2314                           ;mcc_generated_files/eusart.c: 86:     EUSART_SetFramingErrorHandler(EUSART_DefaultFrami
      +                          ngErrorHandler);
  2315  0621  3000               	movlw	0
  2316  0622  00F8               	movwf	EUSART_SetFramingErrorHandler@interruptHandler
  2317  0623  3000               	movlw	0
  2318  0624  00F9               	movwf	EUSART_SetFramingErrorHandler@interruptHandler+1
  2319  0625  3184  24C6  3186   	fcall	_EUSART_SetFramingErrorHandler
  2320  0628                     l1509:
  2321                           
  2322                           ;mcc_generated_files/eusart.c: 87:     EUSART_SetOverrunErrorHandler(EUSART_DefaultOverr
      +                          unErrorHandler);
  2323  0628  3000               	movlw	0
  2324  0629  00F8               	movwf	EUSART_SetOverrunErrorHandler@interruptHandler
  2325  062A  3000               	movlw	0
  2326  062B  00F9               	movwf	EUSART_SetOverrunErrorHandler@interruptHandler+1
  2327  062C  3184  24CC  3186   	fcall	_EUSART_SetOverrunErrorHandler
  2328  062F                     l1511:
  2329                           
  2330                           ;mcc_generated_files/eusart.c: 88:     EUSART_SetErrorHandler(EUSART_DefaultErrorHandler
      +                          );
  2331  062F  3000               	movlw	0
  2332  0630  00F8               	movwf	EUSART_SetErrorHandler@interruptHandler
  2333  0631  3000               	movlw	0
  2334  0632  00F9               	movwf	EUSART_SetErrorHandler@interruptHandler+1
  2335  0633  3184  24C0  3186   	fcall	_EUSART_SetErrorHandler
  2336  0636                     l1513:
  2337                           
  2338                           ;mcc_generated_files/eusart.c: 90:     eusartRxLastError.status = 0;
  2339  0636  01F7               	clrf	_eusartRxLastError	;volatile
  2340  0637                     l162:
  2341  0637  0008               	return
  2342  0638                     __end_of_EUSART_Initialize:
  2343                           
  2344                           	psect	text9
  2345  04CC                     __ptext9:	
  2346 ;; *************** function _EUSART_SetOverrunErrorHandler *****************
  2347 ;; Defined at:
  2348 ;;		line 161 in file "mcc_generated_files/eusart.c"
  2349 ;; Parameters:    Size  Location     Type
  2350 ;;  interruptHan    2    0[COMMON] PTR FTN()void 
  2351 ;;		 -> EUSART_DefaultOverrunErrorHandler(1), 
  2352 ;; Auto vars:     Size  Location     Type
  2353 ;;		None
  2354 ;; Return value:  Size  Location     Type
  2355 ;;                  1    wreg      void 
  2356 ;; Registers used:
  2357 ;;		wreg
  2358 ;; Tracked objects:
  2359 ;;		On entry : 0/0
  2360 ;;		On exit  : 0/0
  2361 ;;		Unchanged: 0/0
  2362 ;; Data sizes:     COMMON   BANK0   BANK1   BANK2   BANK3   BANK4
  2363 ;;      Params:         2       0       0       0       0       0
  2364 ;;      Locals:         0       0       0       0       0       0
  2365 ;;      Temps:          0       0       0       0       0       0
  2366 ;;      Totals:         2       0       0       0       0       0
  2367 ;;Total ram usage:        2 bytes
  2368 ;; Hardware stack levels used: 1
  2369 ;; This function calls:
  2370 ;;		Nothing
  2371 ;; This function is called by:
  2372 ;;		_EUSART_Initialize
  2373 ;; This function uses a non-reentrant model
  2374 ;;
  2375                           
  2376  04CC                     _EUSART_SetOverrunErrorHandler:	
  2377                           ;psect for function _EUSART_SetOverrunErrorHandler
  2378                           
  2379  04CC                     l1475:	
  2380                           ;incstack = 0
  2381                           ; Regs used in _EUSART_SetOverrunErrorHandler: [wreg]
  2382                           
  2383                           
  2384                           ;mcc_generated_files/eusart.c: 162:     EUSART_OverrunErrorHandler = interruptHandler;
  2385  04CC  0879               	movf	EUSART_SetOverrunErrorHandler@interruptHandler+1,w
  2386  04CD  0020               	movlb	0	; select bank0
  2387  04CE  00B7               	movwf	_EUSART_OverrunErrorHandler+1
  2388  04CF  0878               	movf	EUSART_SetOverrunErrorHandler@interruptHandler,w
  2389  04D0  00B6               	movwf	_EUSART_OverrunErrorHandler
  2390  04D1                     l204:
  2391  04D1  0008               	return
  2392  04D2                     __end_of_EUSART_SetOverrunErrorHandler:
  2393                           
  2394                           	psect	text10
  2395  04C6                     __ptext10:	
  2396 ;; *************** function _EUSART_SetFramingErrorHandler *****************
  2397 ;; Defined at:
  2398 ;;		line 157 in file "mcc_generated_files/eusart.c"
  2399 ;; Parameters:    Size  Location     Type
  2400 ;;  interruptHan    2    0[COMMON] PTR FTN()void 
  2401 ;;		 -> EUSART_DefaultFramingErrorHandler(1), 
  2402 ;; Auto vars:     Size  Location     Type
  2403 ;;		None
  2404 ;; Return value:  Size  Location     Type
  2405 ;;                  1    wreg      void 
  2406 ;; Registers used:
  2407 ;;		wreg
  2408 ;; Tracked objects:
  2409 ;;		On entry : 0/0
  2410 ;;		On exit  : 0/0
  2411 ;;		Unchanged: 0/0
  2412 ;; Data sizes:     COMMON   BANK0   BANK1   BANK2   BANK3   BANK4
  2413 ;;      Params:         2       0       0       0       0       0
  2414 ;;      Locals:         0       0       0       0       0       0
  2415 ;;      Temps:          0       0       0       0       0       0
  2416 ;;      Totals:         2       0       0       0       0       0
  2417 ;;Total ram usage:        2 bytes
  2418 ;; Hardware stack levels used: 1
  2419 ;; This function calls:
  2420 ;;		Nothing
  2421 ;; This function is called by:
  2422 ;;		_EUSART_Initialize
  2423 ;; This function uses a non-reentrant model
  2424 ;;
  2425                           
  2426  04C6                     _EUSART_SetFramingErrorHandler:	
  2427                           ;psect for function _EUSART_SetFramingErrorHandler
  2428                           
  2429  04C6                     l1473:	
  2430                           ;incstack = 0
  2431                           ; Regs used in _EUSART_SetFramingErrorHandler: [wreg]
  2432                           
  2433                           
  2434                           ;mcc_generated_files/eusart.c: 158:     EUSART_FramingErrorHandler = interruptHandler;
  2435  04C6  0879               	movf	EUSART_SetFramingErrorHandler@interruptHandler+1,w
  2436  04C7  0020               	movlb	0	; select bank0
  2437  04C8  00B9               	movwf	_EUSART_FramingErrorHandler+1
  2438  04C9  0878               	movf	EUSART_SetFramingErrorHandler@interruptHandler,w
  2439  04CA  00B8               	movwf	_EUSART_FramingErrorHandler
  2440  04CB                     l201:
  2441  04CB  0008               	return
  2442  04CC                     __end_of_EUSART_SetFramingErrorHandler:
  2443                           
  2444                           	psect	text11
  2445  04C0                     __ptext11:	
  2446 ;; *************** function _EUSART_SetErrorHandler *****************
  2447 ;; Defined at:
  2448 ;;		line 165 in file "mcc_generated_files/eusart.c"
  2449 ;; Parameters:    Size  Location     Type
  2450 ;;  interruptHan    2    0[COMMON] PTR FTN()void 
  2451 ;;		 -> EUSART_DefaultErrorHandler(1), 
  2452 ;; Auto vars:     Size  Location     Type
  2453 ;;		None
  2454 ;; Return value:  Size  Location     Type
  2455 ;;                  1    wreg      void 
  2456 ;; Registers used:
  2457 ;;		wreg
  2458 ;; Tracked objects:
  2459 ;;		On entry : 0/0
  2460 ;;		On exit  : 0/0
  2461 ;;		Unchanged: 0/0
  2462 ;; Data sizes:     COMMON   BANK0   BANK1   BANK2   BANK3   BANK4
  2463 ;;      Params:         2       0       0       0       0       0
  2464 ;;      Locals:         0       0       0       0       0       0
  2465 ;;      Temps:          0       0       0       0       0       0
  2466 ;;      Totals:         2       0       0       0       0       0
  2467 ;;Total ram usage:        2 bytes
  2468 ;; Hardware stack levels used: 1
  2469 ;; This function calls:
  2470 ;;		Nothing
  2471 ;; This function is called by:
  2472 ;;		_EUSART_Initialize
  2473 ;; This function uses a non-reentrant model
  2474 ;;
  2475                           
  2476  04C0                     _EUSART_SetErrorHandler:	
  2477                           ;psect for function _EUSART_SetErrorHandler
  2478                           
  2479  04C0                     l1477:	
  2480                           ;incstack = 0
  2481                           ; Regs used in _EUSART_SetErrorHandler: [wreg]
  2482                           
  2483                           
  2484                           ;mcc_generated_files/eusart.c: 166:     EUSART_ErrorHandler = interruptHandler;
  2485  04C0  0879               	movf	EUSART_SetErrorHandler@interruptHandler+1,w
  2486  04C1  0020               	movlb	0	; select bank0
  2487  04C2  00B5               	movwf	_EUSART_ErrorHandler+1
  2488  04C3  0878               	movf	EUSART_SetErrorHandler@interruptHandler,w
  2489  04C4  00B4               	movwf	_EUSART_ErrorHandler
  2490  04C5                     l207:
  2491  04C5  0008               	return
  2492  04C6                     __end_of_EUSART_SetErrorHandler:
  2493                           
  2494                           	psect	text12
  2495  04F9                     __ptext12:	
  2496 ;; *************** function _Kep *****************
  2497 ;; Defined at:
  2498 ;;		line 209 in file "main.c"
  2499 ;; Parameters:    Size  Location     Type
  2500 ;;		None
  2501 ;; Auto vars:     Size  Location     Type
  2502 ;;		None
  2503 ;; Return value:  Size  Location     Type
  2504 ;;                  1    wreg      void 
  2505 ;; Registers used:
  2506 ;;		wreg, status,2, status,0, pclath, cstack
  2507 ;; Tracked objects:
  2508 ;;		On entry : 0/0
  2509 ;;		On exit  : 0/0
  2510 ;;		Unchanged: 0/0
  2511 ;; Data sizes:     COMMON   BANK0   BANK1   BANK2   BANK3   BANK4
  2512 ;;      Params:         0       0       0       0       0       0
  2513 ;;      Locals:         0       0       0       0       0       0
  2514 ;;      Temps:          0       0       0       0       0       0
  2515 ;;      Totals:         0       0       0       0       0       0
  2516 ;;Total ram usage:        0 bytes
  2517 ;; Hardware stack levels used: 1
  2518 ;; Hardware stack levels required when called: 2
  2519 ;; This function calls:
  2520 ;;		_Dunglai
  2521 ;;		_Servo_Motion_CW
  2522 ;; This function is called by:
  2523 ;;		_main
  2524 ;; This function uses a non-reentrant model
  2525 ;;
  2526                           
  2527  04F9                     _Kep:	
  2528                           ;psect for function _Kep
  2529                           
  2530  04F9                     l1671:	
  2531                           ;incstack = 0
  2532                           ; Regs used in _Kep: [wreg+status,2+status,0+pclath+cstack]
  2533                           
  2534                           
  2535                           ;main.c: 210:     Dunglai();
  2536  04F9  3185  2515  3184   	fcall	_Dunglai
  2537                           
  2538                           ;main.c: 211:     Servo_Motion_CW();
  2539  04FC  3186  265B  3184   	fcall	_Servo_Motion_CW
  2540  04FF                     l1673:
  2541                           
  2542                           ;main.c: 212:     dem = dem +1;
  2543  04FF  0872               	movf	_dem,w
  2544  0500  3E01               	addlw	1
  2545  0501  00F2               	movwf	_dem
  2546  0502  3000               	movlw	0
  2547  0503  3D73               	addwfc	_dem+1,w
  2548  0504  00F3               	movwf	_dem+1
  2549  0505                     l341:
  2550  0505  0008               	return
  2551  0506                     __end_of_Kep:
  2552                           
  2553                           	psect	text13
  2554  065B                     __ptext13:	
  2555 ;; *************** function _Servo_Motion_CW *****************
  2556 ;; Defined at:
  2557 ;;		line 98 in file "main.c"
  2558 ;; Parameters:    Size  Location     Type
  2559 ;;		None
  2560 ;; Auto vars:     Size  Location     Type
  2561 ;;  i               2    1[COMMON] int 
  2562 ;; Return value:  Size  Location     Type
  2563 ;;                  1    wreg      void 
  2564 ;; Registers used:
  2565 ;;		wreg, status,2
  2566 ;; Tracked objects:
  2567 ;;		On entry : 0/0
  2568 ;;		On exit  : 0/0
  2569 ;;		Unchanged: 0/0
  2570 ;; Data sizes:     COMMON   BANK0   BANK1   BANK2   BANK3   BANK4
  2571 ;;      Params:         0       0       0       0       0       0
  2572 ;;      Locals:         2       0       0       0       0       0
  2573 ;;      Temps:          1       0       0       0       0       0
  2574 ;;      Totals:         3       0       0       0       0       0
  2575 ;;Total ram usage:        3 bytes
  2576 ;; Hardware stack levels used: 1
  2577 ;; This function calls:
  2578 ;;		Nothing
  2579 ;; This function is called by:
  2580 ;;		_Kep
  2581 ;; This function uses a non-reentrant model
  2582 ;;
  2583                           
  2584  065B                     _Servo_Motion_CW:	
  2585                           ;psect for function _Servo_Motion_CW
  2586                           
  2587  065B                     l1133:	
  2588                           ;incstack = 0
  2589                           ; Regs used in _Servo_Motion_CW: [wreg+status,2]
  2590                           
  2591                           
  2592                           ;main.c: 99:     for(int i=0;i<50;i++){
  2593  065B  01F9               	clrf	Servo_Motion_CW@i
  2594  065C  01FA               	clrf	Servo_Motion_CW@i+1
  2595  065D                     l258:
  2596                           
  2597                           ;main.c: 100:         LATAbits.LATA7 = 1;
  2598  065D  0022               	movlb	2	; select bank2
  2599  065E  178C               	bsf	12,7	;volatile
  2600  065F                     l1139:
  2601                           
  2602                           ;main.c: 101:         _delay((unsigned long)((1.5)*(4000000/4000.0)));
  2603  065F  30D6               	movlw	214
  2604  0660                     u2177:
  2605  0660  3200               	nop2
  2606  0661  3200               	nop2
  2607  0662  0B89               	decfsz	9,f
  2608  0663  2E60               	goto	u2177
  2609  0664  3200               	nop2
  2610  0665                     l1141:
  2611                           
  2612                           ;main.c: 102:         LATAbits.LATA7 = 0;
  2613  0665  0022               	movlb	2	; select bank2
  2614  0666  138C               	bcf	12,7	;volatile
  2615                           
  2616                           ;main.c: 103:         _delay((unsigned long)((18.5)*(4000000/4000.0)));
  2617  0667  3019               	movlw	25
  2618  0668  00F8               	movwf	??_Servo_Motion_CW
  2619  0669  3005               	movlw	5
  2620  066A                     u2187:
  2621  066A  0B89               	decfsz	9,f
  2622  066B  2E6A               	goto	u2187
  2623  066C  0BF8               	decfsz	??_Servo_Motion_CW,f
  2624  066D  2E6A               	goto	u2187
  2625  066E  0000               	nop
  2626                           
  2627                           ;main.c: 104:     }
  2628  066F  3001               	movlw	1
  2629  0670  07F9               	addwf	Servo_Motion_CW@i,f
  2630  0671  3000               	movlw	0
  2631  0672  3DFA               	addwfc	Servo_Motion_CW@i+1,f
  2632  0673  087A               	movf	Servo_Motion_CW@i+1,w
  2633  0674  3A80               	xorlw	128
  2634  0675  00F8               	movwf	??_Servo_Motion_CW
  2635  0676  3080               	movlw	128
  2636  0677  0278               	subwf	??_Servo_Motion_CW,w
  2637  0678  1D03               	skipz
  2638  0679  2E7C               	goto	u115
  2639  067A  3032               	movlw	50
  2640  067B  0279               	subwf	Servo_Motion_CW@i,w
  2641  067C                     u115:
  2642  067C  1C03               	skipc
  2643  067D  2E7F               	goto	u111
  2644  067E  2E80               	goto	u110
  2645  067F                     u111:
  2646  067F  2E5D               	goto	l258
  2647  0680                     u110:
  2648  0680                     l260:
  2649  0680  0008               	return
  2650  0681                     __end_of_Servo_Motion_CW:
  2651                           
  2652                           	psect	text14
  2653  06BF                     __ptext14:	
  2654 ;; *************** function _Doline_Cong *****************
  2655 ;; Defined at:
  2656 ;;		line 183 in file "main.c"
  2657 ;; Parameters:    Size  Location     Type
  2658 ;;		None
  2659 ;; Auto vars:     Size  Location     Type
  2660 ;;		None
  2661 ;; Return value:  Size  Location     Type
  2662 ;;                  1    wreg      void 
  2663 ;; Registers used:
  2664 ;;		wreg, status,2, status,0, pclath, cstack
  2665 ;; Tracked objects:
  2666 ;;		On entry : 0/0
  2667 ;;		On exit  : 0/0
  2668 ;;		Unchanged: 0/0
  2669 ;; Data sizes:     COMMON   BANK0   BANK1   BANK2   BANK3   BANK4
  2670 ;;      Params:         0       0       0       0       0       0
  2671 ;;      Locals:         0       0       0       0       0       0
  2672 ;;      Temps:          0       0       0       0       0       0
  2673 ;;      Totals:         0       0       0       0       0       0
  2674 ;;Total ram usage:        0 bytes
  2675 ;; Hardware stack levels used: 1
  2676 ;; Hardware stack levels required when called: 2
  2677 ;; This function calls:
  2678 ;;		_Dilui
  2679 ;;		_Dithang
  2680 ;;		_Rephai
  2681 ;;		_Retrai
  2682 ;; This function is called by:
  2683 ;;		_main
  2684 ;; This function uses a non-reentrant model
  2685 ;;
  2686                           
  2687  06BF                     _Doline_Cong:	
  2688                           ;psect for function _Doline_Cong
  2689                           
  2690  06BF                     l1621:	
  2691                           ;incstack = 0
  2692                           ; Regs used in _Doline_Cong: [wreg+status,2+status,0+pclath+cstack]
  2693                           
  2694                           
  2695                           ;main.c: 184:     if((PORTAbits.RA0 == 1)&&(PORTBbits.RB0 == 0)&&(PORTAbits.RA1 == 0)){
  2696  06BF  0020               	movlb	0	; select bank0
  2697  06C0  1C0C               	btfss	12,0	;volatile
  2698  06C1  2EC3               	goto	u1391
  2699  06C2  2EC4               	goto	u1390
  2700  06C3                     u1391:
  2701  06C3  2ED0               	goto	l323
  2702  06C4                     u1390:
  2703  06C4                     l1623:
  2704  06C4  180D               	btfsc	13,0	;volatile
  2705  06C5  2EC7               	goto	u1401
  2706  06C6  2EC8               	goto	u1400
  2707  06C7                     u1401:
  2708  06C7  2ED0               	goto	l323
  2709  06C8                     u1400:
  2710  06C8                     l1625:
  2711  06C8  188C               	btfsc	12,1	;volatile
  2712  06C9  2ECB               	goto	u1411
  2713  06CA  2ECC               	goto	u1410
  2714  06CB                     u1411:
  2715  06CB  2ED0               	goto	l323
  2716  06CC                     u1410:
  2717  06CC                     l1627:
  2718                           
  2719                           ;main.c: 185:         Retrai();
  2720  06CC  3185  2555  3186   	fcall	_Retrai
  2721                           
  2722                           ;main.c: 186:     }
  2723  06CF  2F34               	goto	l338
  2724  06D0                     l323:	
  2725                           ;main.c: 187:     else if((PORTAbits.RA0 == 0)&&(PORTBbits.RB0 == 0)&&(PORTAbits.RA1 == 
      +                          1)){
  2726                           
  2727  06D0  180C               	btfsc	12,0	;volatile
  2728  06D1  2ED3               	goto	u1421
  2729  06D2  2ED4               	goto	u1420
  2730  06D3                     u1421:
  2731  06D3  2EE0               	goto	l325
  2732  06D4                     u1420:
  2733  06D4                     l1629:
  2734  06D4  180D               	btfsc	13,0	;volatile
  2735  06D5  2ED7               	goto	u1431
  2736  06D6  2ED8               	goto	u1430
  2737  06D7                     u1431:
  2738  06D7  2EE0               	goto	l325
  2739  06D8                     u1430:
  2740  06D8                     l1631:
  2741  06D8  1C8C               	btfss	12,1	;volatile
  2742  06D9  2EDB               	goto	u1441
  2743  06DA  2EDC               	goto	u1440
  2744  06DB                     u1441:
  2745  06DB  2EE0               	goto	l325
  2746  06DC                     u1440:
  2747  06DC                     l1633:
  2748                           
  2749                           ;main.c: 188:         Rephai();
  2750  06DC  3185  253F  3186   	fcall	_Rephai
  2751                           
  2752                           ;main.c: 189:     }
  2753  06DF  2F34               	goto	l338
  2754  06E0                     l325:	
  2755                           ;main.c: 190:     else if((PORTAbits.RA0 == 0)&&(PORTBbits.RB0 == 1)&&(PORTAbits.RA1 == 
      +                          0)){
  2756                           
  2757  06E0  180C               	btfsc	12,0	;volatile
  2758  06E1  2EE3               	goto	u1451
  2759  06E2  2EE4               	goto	u1450
  2760  06E3                     u1451:
  2761  06E3  2EF0               	goto	l327
  2762  06E4                     u1450:
  2763  06E4                     l1635:
  2764  06E4  1C0D               	btfss	13,0	;volatile
  2765  06E5  2EE7               	goto	u1461
  2766  06E6  2EE8               	goto	u1460
  2767  06E7                     u1461:
  2768  06E7  2EF0               	goto	l327
  2769  06E8                     u1460:
  2770  06E8                     l1637:
  2771  06E8  188C               	btfsc	12,1	;volatile
  2772  06E9  2EEB               	goto	u1471
  2773  06EA  2EEC               	goto	u1470
  2774  06EB                     u1471:
  2775  06EB  2EF0               	goto	l327
  2776  06EC                     u1470:
  2777  06EC                     l1639:
  2778                           
  2779                           ;main.c: 191:         Dithang();
  2780  06EC  3185  25C6  3186   	fcall	_Dithang
  2781                           
  2782                           ;main.c: 192:     }
  2783  06EF  2F34               	goto	l338
  2784  06F0                     l327:	
  2785                           ;main.c: 193:     else if((PORTAbits.RA0 == 1)&&(PORTBbits.RB0 == 1)&&(PORTAbits.RA1 == 
      +                          1)){
  2786                           
  2787  06F0  1C0C               	btfss	12,0	;volatile
  2788  06F1  2EF3               	goto	u1481
  2789  06F2  2EF4               	goto	u1480
  2790  06F3                     u1481:
  2791  06F3  2EFD               	goto	l329
  2792  06F4                     u1480:
  2793  06F4                     l1641:
  2794  06F4  1C0D               	btfss	13,0	;volatile
  2795  06F5  2EF7               	goto	u1491
  2796  06F6  2EF8               	goto	u1490
  2797  06F7                     u1491:
  2798  06F7  2EFD               	goto	l329
  2799  06F8                     u1490:
  2800  06F8                     l1643:
  2801  06F8  1C8C               	btfss	12,1	;volatile
  2802  06F9  2EFB               	goto	u1501
  2803  06FA  2EFC               	goto	u1500
  2804  06FB                     u1501:
  2805  06FB  2EFD               	goto	l329
  2806  06FC                     u1500:
  2807  06FC  2ECC               	goto	l1627
  2808  06FD                     l329:	
  2809                           ;main.c: 196:     else if((PORTAbits.RA0 == 0)&&(PORTBbits.RB0 == 1)&&(PORTAbits.RA1 == 
      +                          1)){
  2810                           
  2811  06FD  180C               	btfsc	12,0	;volatile
  2812  06FE  2F00               	goto	u1511
  2813  06FF  2F01               	goto	u1510
  2814  0700                     u1511:
  2815  0700  2F0A               	goto	l331
  2816  0701                     u1510:
  2817  0701                     l1647:
  2818  0701  1C0D               	btfss	13,0	;volatile
  2819  0702  2F04               	goto	u1521
  2820  0703  2F05               	goto	u1520
  2821  0704                     u1521:
  2822  0704  2F0A               	goto	l331
  2823  0705                     u1520:
  2824  0705                     l1649:
  2825  0705  1C8C               	btfss	12,1	;volatile
  2826  0706  2F08               	goto	u1531
  2827  0707  2F09               	goto	u1530
  2828  0708                     u1531:
  2829  0708  2F0A               	goto	l331
  2830  0709                     u1530:
  2831  0709  2EDC               	goto	l1633
  2832  070A                     l331:	
  2833                           ;main.c: 199:     else if((PORTAbits.RA0 == 1)&&(PORTBbits.RB0 == 1)&&(PORTAbits.RA1 == 
      +                          0)){
  2834                           
  2835  070A  1C0C               	btfss	12,0	;volatile
  2836  070B  2F0D               	goto	u1541
  2837  070C  2F0E               	goto	u1540
  2838  070D                     u1541:
  2839  070D  2F17               	goto	l333
  2840  070E                     u1540:
  2841  070E                     l1653:
  2842  070E  1C0D               	btfss	13,0	;volatile
  2843  070F  2F11               	goto	u1551
  2844  0710  2F12               	goto	u1550
  2845  0711                     u1551:
  2846  0711  2F17               	goto	l333
  2847  0712                     u1550:
  2848  0712                     l1655:
  2849  0712  188C               	btfsc	12,1	;volatile
  2850  0713  2F15               	goto	u1561
  2851  0714  2F16               	goto	u1560
  2852  0715                     u1561:
  2853  0715  2F17               	goto	l333
  2854  0716                     u1560:
  2855  0716  2ECC               	goto	l1627
  2856  0717                     l333:	
  2857                           ;main.c: 202:     else if((PORTAbits.RA0 == 1)&&(PORTBbits.RB0 == 0)&&(PORTAbits.RA1 == 
      +                          1)){
  2858                           
  2859  0717  1C0C               	btfss	12,0	;volatile
  2860  0718  2F1A               	goto	u1571
  2861  0719  2F1B               	goto	u1570
  2862  071A                     u1571:
  2863  071A  2F27               	goto	l335
  2864  071B                     u1570:
  2865  071B                     l1659:
  2866  071B  180D               	btfsc	13,0	;volatile
  2867  071C  2F1E               	goto	u1581
  2868  071D  2F1F               	goto	u1580
  2869  071E                     u1581:
  2870  071E  2F27               	goto	l335
  2871  071F                     u1580:
  2872  071F                     l1661:
  2873  071F  1C8C               	btfss	12,1	;volatile
  2874  0720  2F22               	goto	u1591
  2875  0721  2F23               	goto	u1590
  2876  0722                     u1591:
  2877  0722  2F27               	goto	l335
  2878  0723                     u1590:
  2879  0723                     l1663:
  2880                           
  2881                           ;main.c: 203:         Dilui();
  2882  0723  3185  25AF  3186   	fcall	_Dilui
  2883                           
  2884                           ;main.c: 204:     }
  2885  0726  2F34               	goto	l338
  2886  0727                     l335:	
  2887                           ;main.c: 205:     else if((PORTAbits.RA0 == 0)&&(PORTBbits.RB0 == 0)&&(PORTAbits.RA1 == 
      +                          0)){
  2888                           
  2889  0727  180C               	btfsc	12,0	;volatile
  2890  0728  2F2A               	goto	u1601
  2891  0729  2F2B               	goto	u1600
  2892  072A                     u1601:
  2893  072A  2F34               	goto	l332
  2894  072B                     u1600:
  2895  072B                     l1665:
  2896  072B  180D               	btfsc	13,0	;volatile
  2897  072C  2F2E               	goto	u1611
  2898  072D  2F2F               	goto	u1610
  2899  072E                     u1611:
  2900  072E  2F34               	goto	l332
  2901  072F                     u1610:
  2902  072F                     l1667:
  2903  072F  188C               	btfsc	12,1	;volatile
  2904  0730  2F32               	goto	u1621
  2905  0731  2F33               	goto	u1620
  2906  0732                     u1621:
  2907  0732  2F34               	goto	l332
  2908  0733                     u1620:
  2909  0733  2F23               	goto	l1663
  2910  0734                     l332:
  2911  0734                     l338:
  2912  0734  0008               	return
  2913  0735                     __end_of_Doline_Cong:
  2914                           
  2915                           	psect	text15
  2916  0735                     __ptext15:	
  2917 ;; *************** function _Bluetooth *****************
  2918 ;; Defined at:
  2919 ;;		line 150 in file "main.c"
  2920 ;; Parameters:    Size  Location     Type
  2921 ;;		None
  2922 ;; Auto vars:     Size  Location     Type
  2923 ;;		None
  2924 ;; Return value:  Size  Location     Type
  2925 ;;                  1    wreg      void 
  2926 ;; Registers used:
  2927 ;;		wreg, status,2, status,0, pclath, cstack
  2928 ;; Tracked objects:
  2929 ;;		On entry : 0/0
  2930 ;;		On exit  : 0/0
  2931 ;;		Unchanged: 0/0
  2932 ;; Data sizes:     COMMON   BANK0   BANK1   BANK2   BANK3   BANK4
  2933 ;;      Params:         0       0       0       0       0       0
  2934 ;;      Locals:         0       0       0       0       0       0
  2935 ;;      Temps:          1       0       0       0       0       0
  2936 ;;      Totals:         1       0       0       0       0       0
  2937 ;;Total ram usage:        1 bytes
  2938 ;; Hardware stack levels used: 1
  2939 ;; Hardware stack levels required when called: 2
  2940 ;; This function calls:
  2941 ;;		_Dilui
  2942 ;;		_Dithang
  2943 ;;		_Dunglai
  2944 ;;		_EUSART_Read
  2945 ;;		_EUSART_is_rx_ready
  2946 ;;		_Rephai
  2947 ;;		_Retrai
  2948 ;;		_Servo_Motion_CCW
  2949 ;; This function is called by:
  2950 ;;		_main
  2951 ;; This function uses a non-reentrant model
  2952 ;;
  2953                           
  2954  0735                     _Bluetooth:	
  2955                           ;psect for function _Bluetooth
  2956                           
  2957  0735                     l1553:	
  2958                           ;incstack = 0
  2959                           ; Regs used in _Bluetooth: [wreg+status,2+status,0+pclath+cstack]
  2960                           
  2961                           
  2962                           ;main.c: 151:     while (EUSART_is_rx_ready() == 1){
  2963  0735  2FE4               	goto	l286
  2964  0736                     l1555:
  2965                           
  2966                           ;main.c: 152:         CMD[0] = EUSART_Read();
  2967  0736  3185  2506  3187   	fcall	_EUSART_Read
  2968  0739  00FC               	movwf	??_Bluetooth
  2969  073A  087C               	movf	??_Bluetooth,w
  2970  073B  0020               	movlb	0	; select bank0
  2971  073C  00AA               	movwf	_CMD
  2972  073D                     l1557:
  2973                           
  2974                           ;main.c: 153:         if(CMD[0] == '1') speed = 10;
  2975  073D  3031               	movlw	49
  2976  073E  062A               	xorwf	_CMD,w
  2977  073F  1D03               	btfss	3,2
  2978  0740  2F42               	goto	u1221
  2979  0741  2F43               	goto	u1220
  2980  0742                     u1221:
  2981  0742  2F48               	goto	l1561
  2982  0743                     u1220:
  2983  0743                     l1559:
  2984  0743  300A               	movlw	10
  2985  0744  00F4               	movwf	_speed
  2986  0745  3000               	movlw	0
  2987  0746  00F5               	movwf	_speed+1
  2988  0747  2FE4               	goto	l286
  2989  0748                     l1561:
  2990  0748  3032               	movlw	50
  2991  0749  062A               	xorwf	_CMD,w
  2992  074A  1D03               	btfss	3,2
  2993  074B  2F4D               	goto	u1231
  2994  074C  2F4E               	goto	u1230
  2995  074D                     u1231:
  2996  074D  2F53               	goto	l1565
  2997  074E                     u1230:
  2998  074E                     l1563:
  2999  074E  3014               	movlw	20
  3000  074F  00F4               	movwf	_speed
  3001  0750  3000               	movlw	0
  3002  0751  00F5               	movwf	_speed+1
  3003  0752  2F35               	goto	l1553
  3004  0753                     l1565:
  3005  0753  3033               	movlw	51
  3006  0754  062A               	xorwf	_CMD,w
  3007  0755  1D03               	btfss	3,2
  3008  0756  2F58               	goto	u1241
  3009  0757  2F59               	goto	u1240
  3010  0758                     u1241:
  3011  0758  2F5E               	goto	l1569
  3012  0759                     u1240:
  3013  0759                     l1567:
  3014  0759  301E               	movlw	30
  3015  075A  00F4               	movwf	_speed
  3016  075B  3000               	movlw	0
  3017  075C  00F5               	movwf	_speed+1
  3018  075D  2FE4               	goto	l286
  3019  075E                     l1569:
  3020  075E  3034               	movlw	52
  3021  075F  062A               	xorwf	_CMD,w
  3022  0760  1D03               	btfss	3,2
  3023  0761  2F63               	goto	u1251
  3024  0762  2F64               	goto	u1250
  3025  0763                     u1251:
  3026  0763  2F69               	goto	l1573
  3027  0764                     u1250:
  3028  0764                     l1571:
  3029  0764  3028               	movlw	40
  3030  0765  00F4               	movwf	_speed
  3031  0766  3000               	movlw	0
  3032  0767  00F5               	movwf	_speed+1
  3033  0768  2F35               	goto	l1553
  3034  0769                     l1573:
  3035  0769  3035               	movlw	53
  3036  076A  062A               	xorwf	_CMD,w
  3037  076B  1D03               	btfss	3,2
  3038  076C  2F6E               	goto	u1261
  3039  076D  2F6F               	goto	u1260
  3040  076E                     u1261:
  3041  076E  2F74               	goto	l1577
  3042  076F                     u1260:
  3043  076F                     l1575:
  3044  076F  3032               	movlw	50
  3045  0770  00F4               	movwf	_speed
  3046  0771  3000               	movlw	0
  3047  0772  00F5               	movwf	_speed+1
  3048  0773  2F35               	goto	l1553
  3049  0774                     l1577:
  3050  0774  3036               	movlw	54
  3051  0775  062A               	xorwf	_CMD,w
  3052  0776  1D03               	btfss	3,2
  3053  0777  2F79               	goto	u1271
  3054  0778  2F7A               	goto	u1270
  3055  0779                     u1271:
  3056  0779  2F7F               	goto	l1581
  3057  077A                     u1270:
  3058  077A                     l1579:
  3059  077A  303C               	movlw	60
  3060  077B  00F4               	movwf	_speed
  3061  077C  3000               	movlw	0
  3062  077D  00F5               	movwf	_speed+1
  3063  077E  2F35               	goto	l1553
  3064  077F                     l1581:
  3065  077F  3037               	movlw	55
  3066  0780  062A               	xorwf	_CMD,w
  3067  0781  1D03               	btfss	3,2
  3068  0782  2F84               	goto	u1281
  3069  0783  2F85               	goto	u1280
  3070  0784                     u1281:
  3071  0784  2F8A               	goto	l1585
  3072  0785                     u1280:
  3073  0785                     l1583:
  3074  0785  3046               	movlw	70
  3075  0786  00F4               	movwf	_speed
  3076  0787  3000               	movlw	0
  3077  0788  00F5               	movwf	_speed+1
  3078  0789  2F35               	goto	l1553
  3079  078A                     l1585:
  3080  078A  3038               	movlw	56
  3081  078B  062A               	xorwf	_CMD,w
  3082  078C  1D03               	btfss	3,2
  3083  078D  2F8F               	goto	u1291
  3084  078E  2F90               	goto	u1290
  3085  078F                     u1291:
  3086  078F  2F95               	goto	l1589
  3087  0790                     u1290:
  3088  0790                     l1587:
  3089  0790  3050               	movlw	80
  3090  0791  00F4               	movwf	_speed
  3091  0792  3000               	movlw	0
  3092  0793  00F5               	movwf	_speed+1
  3093  0794  2FE4               	goto	l286
  3094  0795                     l1589:
  3095  0795  3039               	movlw	57
  3096  0796  062A               	xorwf	_CMD,w
  3097  0797  1D03               	btfss	3,2
  3098  0798  2F9A               	goto	u1301
  3099  0799  2F9B               	goto	u1300
  3100  079A                     u1301:
  3101  079A  2FA0               	goto	l1593
  3102  079B                     u1300:
  3103  079B                     l1591:
  3104  079B  305A               	movlw	90
  3105  079C  00F4               	movwf	_speed
  3106  079D  3000               	movlw	0
  3107  079E  00F5               	movwf	_speed+1
  3108  079F  2F35               	goto	l1553
  3109  07A0                     l1593:
  3110  07A0  3071               	movlw	113
  3111  07A1  062A               	xorwf	_CMD,w
  3112  07A2  1D03               	btfss	3,2
  3113  07A3  2FA5               	goto	u1311
  3114  07A4  2FA6               	goto	u1310
  3115  07A5                     u1311:
  3116  07A5  2FA7               	goto	l1597
  3117  07A6                     u1310:
  3118  07A6  2F9B               	goto	l1591
  3119  07A7                     l1597:
  3120  07A7  3046               	movlw	70
  3121  07A8  062A               	xorwf	_CMD,w
  3122  07A9  1D03               	btfss	3,2
  3123  07AA  2FAC               	goto	u1321
  3124  07AB  2FAD               	goto	u1320
  3125  07AC                     u1321:
  3126  07AC  2FB1               	goto	l1601
  3127  07AD                     u1320:
  3128  07AD                     l1599:
  3129                           
  3130                           ;main.c: 164:             Dithang();
  3131  07AD  3185  25C6  3187   	fcall	_Dithang
  3132                           
  3133                           ;main.c: 165:         }
  3134  07B0  2F35               	goto	l1553
  3135  07B1                     l1601:
  3136  07B1  3042               	movlw	66
  3137  07B2  062A               	xorwf	_CMD,w
  3138  07B3  1D03               	btfss	3,2
  3139  07B4  2FB6               	goto	u1331
  3140  07B5  2FB7               	goto	u1330
  3141  07B6                     u1331:
  3142  07B6  2FBB               	goto	l1605
  3143  07B7                     u1330:
  3144  07B7                     l1603:
  3145                           
  3146                           ;main.c: 167:             Dilui();
  3147  07B7  3185  25AF  3187   	fcall	_Dilui
  3148                           
  3149                           ;main.c: 168:         }
  3150  07BA  2F35               	goto	l1553
  3151  07BB                     l1605:
  3152  07BB  304C               	movlw	76
  3153  07BC  062A               	xorwf	_CMD,w
  3154  07BD  1D03               	btfss	3,2
  3155  07BE  2FC0               	goto	u1341
  3156  07BF  2FC1               	goto	u1340
  3157  07C0                     u1341:
  3158  07C0  2FC5               	goto	l1609
  3159  07C1                     u1340:
  3160  07C1                     l1607:
  3161                           
  3162                           ;main.c: 170:             Retrai();
  3163  07C1  3185  2555  3187   	fcall	_Retrai
  3164                           
  3165                           ;main.c: 171:         }
  3166  07C4  2F35               	goto	l1553
  3167  07C5                     l1609:
  3168  07C5  3052               	movlw	82
  3169  07C6  062A               	xorwf	_CMD,w
  3170  07C7  1D03               	btfss	3,2
  3171  07C8  2FCA               	goto	u1351
  3172  07C9  2FCB               	goto	u1350
  3173  07CA                     u1351:
  3174  07CA  2FCF               	goto	l1613
  3175  07CB                     u1350:
  3176  07CB                     l1611:
  3177                           
  3178                           ;main.c: 173:             Rephai();
  3179  07CB  3185  253F  3187   	fcall	_Rephai
  3180                           
  3181                           ;main.c: 174:         }
  3182  07CE  2F35               	goto	l1553
  3183  07CF                     l1613:
  3184  07CF  3053               	movlw	83
  3185  07D0  062A               	xorwf	_CMD,w
  3186  07D1  1D03               	btfss	3,2
  3187  07D2  2FD4               	goto	u1361
  3188  07D3  2FD5               	goto	u1360
  3189  07D4                     u1361:
  3190  07D4  2FD9               	goto	l1617
  3191  07D5                     u1360:
  3192  07D5                     l1615:
  3193                           
  3194                           ;main.c: 176:             Dunglai();
  3195  07D5  3185  2515  3187   	fcall	_Dunglai
  3196                           
  3197                           ;main.c: 177:         }
  3198  07D8  2F35               	goto	l1553
  3199  07D9                     l1617:
  3200  07D9  3057               	movlw	87
  3201  07DA  062A               	xorwf	_CMD,w
  3202  07DB  1D03               	btfss	3,2
  3203  07DC  2FDE               	goto	u1371
  3204  07DD  2FDF               	goto	u1370
  3205  07DE                     u1371:
  3206  07DE  2FE3               	goto	l313
  3207  07DF                     u1370:
  3208  07DF                     l1619:
  3209                           
  3210                           ;main.c: 179:             Servo_Motion_CCW();
  3211  07DF  3186  2638  3187   	fcall	_Servo_Motion_CCW
  3212  07E2  2F35               	goto	l1553
  3213  07E3                     l313:
  3214  07E3  2F35               	goto	l1553
  3215  07E4                     l286:	
  3216                           ;main.c: 181:     }
  3217                           
  3218                           
  3219                           ;main.c: 151:     while (EUSART_is_rx_ready() == 1){
  3220  07E4  3184  24BB  3187   	fcall	_EUSART_is_rx_ready
  3221  07E7  3A01               	xorlw	1
  3222  07E8  1903               	skipnz
  3223  07E9  2FEB               	goto	u1381
  3224  07EA  2FEC               	goto	u1380
  3225  07EB                     u1381:
  3226  07EB  2F36               	goto	l1555
  3227  07EC                     u1380:
  3228  07EC                     l320:
  3229  07EC  0008               	return
  3230  07ED                     __end_of_Bluetooth:
  3231                           
  3232                           	psect	text16
  3233  0638                     __ptext16:	
  3234 ;; *************** function _Servo_Motion_CCW *****************
  3235 ;; Defined at:
  3236 ;;		line 106 in file "main.c"
  3237 ;; Parameters:    Size  Location     Type
  3238 ;;		None
  3239 ;; Auto vars:     Size  Location     Type
  3240 ;;  i               2    1[COMMON] int 
  3241 ;; Return value:  Size  Location     Type
  3242 ;;                  1    wreg      void 
  3243 ;; Registers used:
  3244 ;;		wreg, status,2
  3245 ;; Tracked objects:
  3246 ;;		On entry : 0/0
  3247 ;;		On exit  : 0/0
  3248 ;;		Unchanged: 0/0
  3249 ;; Data sizes:     COMMON   BANK0   BANK1   BANK2   BANK3   BANK4
  3250 ;;      Params:         0       0       0       0       0       0
  3251 ;;      Locals:         2       0       0       0       0       0
  3252 ;;      Temps:          1       0       0       0       0       0
  3253 ;;      Totals:         3       0       0       0       0       0
  3254 ;;Total ram usage:        3 bytes
  3255 ;; Hardware stack levels used: 1
  3256 ;; This function calls:
  3257 ;;		Nothing
  3258 ;; This function is called by:
  3259 ;;		_Bluetooth
  3260 ;; This function uses a non-reentrant model
  3261 ;;
  3262                           
  3263  0638                     _Servo_Motion_CCW:	
  3264                           ;psect for function _Servo_Motion_CCW
  3265                           
  3266  0638                     l1531:	
  3267                           ;incstack = 0
  3268                           ; Regs used in _Servo_Motion_CCW: [wreg+status,2]
  3269                           
  3270                           
  3271                           ;main.c: 107:     for(int i=0;i<50;i++){
  3272  0638  01F9               	clrf	Servo_Motion_CCW@i
  3273  0639  01FA               	clrf	Servo_Motion_CCW@i+1
  3274  063A                     l263:
  3275                           
  3276                           ;main.c: 108:         LATAbits.LATA7 = 1;
  3277  063A  0022               	movlb	2	; select bank2
  3278  063B  178C               	bsf	12,7	;volatile
  3279  063C                     l1537:
  3280                           
  3281                           ;main.c: 109:         _delay((unsigned long)((0.5)*(4000000/4000.0)));
  3282  063C  30A6               	movlw	166
  3283  063D                     u2197:
  3284  063D  0B89               	decfsz	9,f
  3285  063E  2E3D               	goto	u2197
  3286  063F  3200               	nop2
  3287  0640                     l1539:
  3288                           
  3289                           ;main.c: 110:         LATAbits.LATA7 = 0;
  3290  0640  0022               	movlb	2	; select bank2
  3291  0641  138C               	bcf	12,7	;volatile
  3292                           
  3293                           ;main.c: 111:         _delay((unsigned long)((19.5)*(4000000/4000.0)));
  3294  0642  301A               	movlw	26
  3295  0643  00F8               	movwf	??_Servo_Motion_CCW
  3296  0644  3052               	movlw	82
  3297  0645                     u2207:
  3298  0645  0B89               	decfsz	9,f
  3299  0646  2E45               	goto	u2207
  3300  0647  0BF8               	decfsz	??_Servo_Motion_CCW,f
  3301  0648  2E45               	goto	u2207
  3302                           
  3303                           ;main.c: 112:     }
  3304  0649  3001               	movlw	1
  3305  064A  07F9               	addwf	Servo_Motion_CCW@i,f
  3306  064B  3000               	movlw	0
  3307  064C  3DFA               	addwfc	Servo_Motion_CCW@i+1,f
  3308  064D  087A               	movf	Servo_Motion_CCW@i+1,w
  3309  064E  3A80               	xorlw	128
  3310  064F  00F8               	movwf	??_Servo_Motion_CCW
  3311  0650  3080               	movlw	128
  3312  0651  0278               	subwf	??_Servo_Motion_CCW,w
  3313  0652  1D03               	skipz
  3314  0653  2E56               	goto	u1215
  3315  0654  3032               	movlw	50
  3316  0655  0279               	subwf	Servo_Motion_CCW@i,w
  3317  0656                     u1215:
  3318  0656  1C03               	skipc
  3319  0657  2E59               	goto	u1211
  3320  0658  2E5A               	goto	u1210
  3321  0659                     u1211:
  3322  0659  2E3A               	goto	l263
  3323  065A                     u1210:
  3324  065A                     l265:
  3325  065A  0008               	return
  3326  065B                     __end_of_Servo_Motion_CCW:
  3327                           
  3328                           	psect	text17
  3329  0555                     __ptext17:	
  3330 ;; *************** function _Retrai *****************
  3331 ;; Defined at:
  3332 ;;		line 120 in file "main.c"
  3333 ;; Parameters:    Size  Location     Type
  3334 ;;		None
  3335 ;; Auto vars:     Size  Location     Type
  3336 ;;		None
  3337 ;; Return value:  Size  Location     Type
  3338 ;;                  1    wreg      void 
  3339 ;; Registers used:
  3340 ;;		wreg, status,2, status,0, pclath, cstack
  3341 ;; Tracked objects:
  3342 ;;		On entry : 0/0
  3343 ;;		On exit  : 0/0
  3344 ;;		Unchanged: 0/0
  3345 ;; Data sizes:     COMMON   BANK0   BANK1   BANK2   BANK3   BANK4
  3346 ;;      Params:         0       0       0       0       0       0
  3347 ;;      Locals:         0       0       0       0       0       0
  3348 ;;      Temps:          0       0       0       0       0       0
  3349 ;;      Totals:         0       0       0       0       0       0
  3350 ;;Total ram usage:        0 bytes
  3351 ;; Hardware stack levels used: 1
  3352 ;; Hardware stack levels required when called: 1
  3353 ;; This function calls:
  3354 ;;		_MotorLeft_set_direction
  3355 ;;		_MotorRight_set_direction
  3356 ;;		_PWM3_LoadDutyValue
  3357 ;;		_PWM4_LoadDutyValue
  3358 ;; This function is called by:
  3359 ;;		_Bluetooth
  3360 ;;		_Doline_Cong
  3361 ;;		_Doline_Thang
  3362 ;; This function uses a non-reentrant model
  3363 ;;
  3364                           
  3365  0555                     _Retrai:	
  3366                           ;psect for function _Retrai
  3367                           
  3368  0555                     l1543:	
  3369                           ;incstack = 0
  3370                           ; Regs used in _Retrai: [wreg+status,2+status,0+pclath+cstack]
  3371                           
  3372                           
  3373                           ;main.c: 121:     MotorLeft_set_direction(2);
  3374  0555  3002               	movlw	2
  3375  0556  3185  25DD  3185   	fcall	_MotorLeft_set_direction
  3376                           
  3377                           ;main.c: 122:     MotorRight_set_direction(1);
  3378  0559  3001               	movlw	1
  3379  055A  3185  25FA  3185   	fcall	_MotorRight_set_direction
  3380                           
  3381                           ;main.c: 123:     PWM3_LoadDutyValue(490);
  3382  055D  30EA               	movlw	234
  3383  055E  00F8               	movwf	PWM3_LoadDutyValue@dutyValue
  3384  055F  3001               	movlw	1
  3385  0560  00F9               	movwf	PWM3_LoadDutyValue@dutyValue+1
  3386  0561  3185  2581  3185   	fcall	_PWM3_LoadDutyValue
  3387                           
  3388                           ;main.c: 124:     PWM4_LoadDutyValue(0);
  3389  0564  3000               	movlw	0
  3390  0565  00F8               	movwf	PWM4_LoadDutyValue@dutyValue
  3391  0566  00F9               	movwf	PWM4_LoadDutyValue@dutyValue+1
  3392  0567  3185  2598  3185   	fcall	_PWM4_LoadDutyValue
  3393  056A                     l271:
  3394  056A  0008               	return
  3395  056B                     __end_of_Retrai:
  3396                           
  3397                           	psect	text18
  3398  053F                     __ptext18:	
  3399 ;; *************** function _Rephai *****************
  3400 ;; Defined at:
  3401 ;;		line 126 in file "main.c"
  3402 ;; Parameters:    Size  Location     Type
  3403 ;;		None
  3404 ;; Auto vars:     Size  Location     Type
  3405 ;;		None
  3406 ;; Return value:  Size  Location     Type
  3407 ;;                  1    wreg      void 
  3408 ;; Registers used:
  3409 ;;		wreg, status,2, status,0, pclath, cstack
  3410 ;; Tracked objects:
  3411 ;;		On entry : 0/0
  3412 ;;		On exit  : 0/0
  3413 ;;		Unchanged: 0/0
  3414 ;; Data sizes:     COMMON   BANK0   BANK1   BANK2   BANK3   BANK4
  3415 ;;      Params:         0       0       0       0       0       0
  3416 ;;      Locals:         0       0       0       0       0       0
  3417 ;;      Temps:          0       0       0       0       0       0
  3418 ;;      Totals:         0       0       0       0       0       0
  3419 ;;Total ram usage:        0 bytes
  3420 ;; Hardware stack levels used: 1
  3421 ;; Hardware stack levels required when called: 1
  3422 ;; This function calls:
  3423 ;;		_MotorLeft_set_direction
  3424 ;;		_MotorRight_set_direction
  3425 ;;		_PWM3_LoadDutyValue
  3426 ;;		_PWM4_LoadDutyValue
  3427 ;; This function is called by:
  3428 ;;		_Bluetooth
  3429 ;;		_Doline_Cong
  3430 ;;		_Doline_Thang
  3431 ;; This function uses a non-reentrant model
  3432 ;;
  3433                           
  3434  053F                     _Rephai:	
  3435                           ;psect for function _Rephai
  3436                           
  3437  053F                     l1545:	
  3438                           ;incstack = 0
  3439                           ; Regs used in _Rephai: [wreg+status,2+status,0+pclath+cstack]
  3440                           
  3441                           
  3442                           ;main.c: 127:     MotorRight_set_direction(2);
  3443  053F  3002               	movlw	2
  3444  0540  3185  25FA  3185   	fcall	_MotorRight_set_direction
  3445                           
  3446                           ;main.c: 128:     MotorLeft_set_direction(1);
  3447  0543  3001               	movlw	1
  3448  0544  3185  25DD  3185   	fcall	_MotorLeft_set_direction
  3449                           
  3450                           ;main.c: 129:     PWM3_LoadDutyValue(0);
  3451  0547  3000               	movlw	0
  3452  0548  00F8               	movwf	PWM3_LoadDutyValue@dutyValue
  3453  0549  00F9               	movwf	PWM3_LoadDutyValue@dutyValue+1
  3454  054A  3185  2581  3185   	fcall	_PWM3_LoadDutyValue
  3455                           
  3456                           ;main.c: 130:     PWM4_LoadDutyValue(500);
  3457  054D  30F4               	movlw	244
  3458  054E  00F8               	movwf	PWM4_LoadDutyValue@dutyValue
  3459  054F  3001               	movlw	1
  3460  0550  00F9               	movwf	PWM4_LoadDutyValue@dutyValue+1
  3461  0551  3185  2598  3185   	fcall	_PWM4_LoadDutyValue
  3462  0554                     l274:
  3463  0554  0008               	return
  3464  0555                     __end_of_Rephai:
  3465                           
  3466                           	psect	text19
  3467  04BB                     __ptext19:	
  3468 ;; *************** function _EUSART_is_rx_ready *****************
  3469 ;; Defined at:
  3470 ;;		line 99 in file "mcc_generated_files/eusart.c"
  3471 ;; Parameters:    Size  Location     Type
  3472 ;;		None
  3473 ;; Auto vars:     Size  Location     Type
  3474 ;;		None
  3475 ;; Return value:  Size  Location     Type
  3476 ;;                  1    wreg      _Bool 
  3477 ;; Registers used:
  3478 ;;		wreg, status,2, status,0
  3479 ;; Tracked objects:
  3480 ;;		On entry : 0/0
  3481 ;;		On exit  : 0/0
  3482 ;;		Unchanged: 0/0
  3483 ;; Data sizes:     COMMON   BANK0   BANK1   BANK2   BANK3   BANK4
  3484 ;;      Params:         0       0       0       0       0       0
  3485 ;;      Locals:         0       0       0       0       0       0
  3486 ;;      Temps:          0       0       0       0       0       0
  3487 ;;      Totals:         0       0       0       0       0       0
  3488 ;;Total ram usage:        0 bytes
  3489 ;; Hardware stack levels used: 1
  3490 ;; This function calls:
  3491 ;;		Nothing
  3492 ;; This function is called by:
  3493 ;;		_Bluetooth
  3494 ;; This function uses a non-reentrant model
  3495 ;;
  3496                           
  3497  04BB                     _EUSART_is_rx_ready:	
  3498                           ;psect for function _EUSART_is_rx_ready
  3499                           
  3500  04BB                     l1515:	
  3501                           ;incstack = 0
  3502                           ; Regs used in _EUSART_is_rx_ready: [wreg+status,2+status,0]
  3503                           
  3504                           
  3505                           ;mcc_generated_files/eusart.c: 101:     return (_Bool)(PIR1bits.RCIF);
  3506  04BB  0020               	movlb	0	; select bank0
  3507  04BC  0E11               	swapf	17,w	;volatile
  3508  04BD  0C89               	rrf	9,f
  3509  04BE  3901               	andlw	1
  3510  04BF                     l170:
  3511  04BF  0008               	return
  3512  04C0                     __end_of_EUSART_is_rx_ready:
  3513                           
  3514                           	psect	text20
  3515  0506                     __ptext20:	
  3516 ;; *************** function _EUSART_Read *****************
  3517 ;; Defined at:
  3518 ;;		line 113 in file "mcc_generated_files/eusart.c"
  3519 ;; Parameters:    Size  Location     Type
  3520 ;;		None
  3521 ;; Auto vars:     Size  Location     Type
  3522 ;;		None
  3523 ;; Return value:  Size  Location     Type
  3524 ;;                  1    wreg      unsigned char 
  3525 ;; Registers used:
  3526 ;;		wreg, status,2
  3527 ;; Tracked objects:
  3528 ;;		On entry : 0/0
  3529 ;;		On exit  : 0/0
  3530 ;;		Unchanged: 0/0
  3531 ;; Data sizes:     COMMON   BANK0   BANK1   BANK2   BANK3   BANK4
  3532 ;;      Params:         0       0       0       0       0       0
  3533 ;;      Locals:         0       0       0       0       0       0
  3534 ;;      Temps:          0       0       0       0       0       0
  3535 ;;      Totals:         0       0       0       0       0       0
  3536 ;;Total ram usage:        0 bytes
  3537 ;; Hardware stack levels used: 1
  3538 ;; This function calls:
  3539 ;;		Nothing
  3540 ;; This function is called by:
  3541 ;;		_Bluetooth
  3542 ;; This function uses a non-reentrant model
  3543 ;;
  3544                           
  3545  0506                     _EUSART_Read:	
  3546                           ;psect for function _EUSART_Read
  3547                           
  3548  0506                     l1519:	
  3549                           ;incstack = 0
  3550                           ; Regs used in _EUSART_Read: [wreg+status,2]
  3551                           
  3552  0506                     l179:	
  3553                           ;mcc_generated_files/eusart.c: 116:     {;mcc_generated_files/eusart.c: 117:     }
  3554                           
  3555                           
  3556                           ;mcc_generated_files/eusart.c: 115:     while(!PIR1bits.RCIF)
  3557  0506  0020               	movlb	0	; select bank0
  3558  0507  1E91               	btfss	17,5	;volatile
  3559  0508  2D0A               	goto	u1191
  3560  0509  2D0B               	goto	u1190
  3561  050A                     u1191:
  3562  050A  2D06               	goto	l179
  3563  050B                     u1190:
  3564  050B                     l1521:
  3565                           
  3566                           ;mcc_generated_files/eusart.c: 119:     eusartRxLastError.status = 0;
  3567  050B  01F7               	clrf	_eusartRxLastError	;volatile
  3568  050C                     l1523:
  3569                           
  3570                           ;mcc_generated_files/eusart.c: 121:     if(1 == RCSTAbits.OERR)
  3571  050C  0023               	movlb	3	; select bank3
  3572  050D  1C9D               	btfss	29,1	;volatile
  3573  050E  2D10               	goto	u1201
  3574  050F  2D11               	goto	u1200
  3575  0510                     u1201:
  3576  0510  2D13               	goto	l1527
  3577  0511                     u1200:
  3578  0511                     l1525:
  3579                           
  3580                           ;mcc_generated_files/eusart.c: 122:     {;mcc_generated_files/eusart.c: 125:         RCS
      +                          TAbits.CREN = 0;
  3581  0511  121D               	bcf	29,4	;volatile
  3582                           
  3583                           ;mcc_generated_files/eusart.c: 126:         RCSTAbits.CREN = 1;
  3584  0512  161D               	bsf	29,4	;volatile
  3585  0513                     l1527:
  3586                           
  3587                           ;mcc_generated_files/eusart.c: 129:     return RCREG;
  3588  0513  0819               	movf	25,w	;volatile
  3589  0514                     l183:
  3590  0514  0008               	return
  3591  0515                     __end_of_EUSART_Read:
  3592                           
  3593                           	psect	text21
  3594  0515                     __ptext21:	
  3595 ;; *************** function _Dunglai *****************
  3596 ;; Defined at:
  3597 ;;		line 144 in file "main.c"
  3598 ;; Parameters:    Size  Location     Type
  3599 ;;		None
  3600 ;; Auto vars:     Size  Location     Type
  3601 ;;		None
  3602 ;; Return value:  Size  Location     Type
  3603 ;;                  1    wreg      void 
  3604 ;; Registers used:
  3605 ;;		wreg, status,2, status,0, pclath, cstack
  3606 ;; Tracked objects:
  3607 ;;		On entry : 0/0
  3608 ;;		On exit  : 0/0
  3609 ;;		Unchanged: 0/0
  3610 ;; Data sizes:     COMMON   BANK0   BANK1   BANK2   BANK3   BANK4
  3611 ;;      Params:         0       0       0       0       0       0
  3612 ;;      Locals:         0       0       0       0       0       0
  3613 ;;      Temps:          0       0       0       0       0       0
  3614 ;;      Totals:         0       0       0       0       0       0
  3615 ;;Total ram usage:        0 bytes
  3616 ;; Hardware stack levels used: 1
  3617 ;; Hardware stack levels required when called: 1
  3618 ;; This function calls:
  3619 ;;		_MotorLeft_set_direction
  3620 ;;		_MotorRight_set_direction
  3621 ;;		_PWM3_LoadDutyValue
  3622 ;;		_PWM4_LoadDutyValue
  3623 ;; This function is called by:
  3624 ;;		_Bluetooth
  3625 ;;		_Kep
  3626 ;; This function uses a non-reentrant model
  3627 ;;
  3628                           
  3629  0515                     _Dunglai:	
  3630                           ;psect for function _Dunglai
  3631                           
  3632  0515                     l1549:	
  3633                           ;incstack = 0
  3634                           ; Regs used in _Dunglai: [wreg+status,2+status,0+pclath+cstack]
  3635                           
  3636                           
  3637                           ;main.c: 145:     MotorLeft_set_direction(2);
  3638  0515  3002               	movlw	2
  3639  0516  3185  25DD  3185   	fcall	_MotorLeft_set_direction
  3640                           
  3641                           ;main.c: 146:     MotorRight_set_direction(2);
  3642  0519  3002               	movlw	2
  3643  051A  3185  25FA  3185   	fcall	_MotorRight_set_direction
  3644                           
  3645                           ;main.c: 147:     PWM3_LoadDutyValue(0);
  3646  051D  3000               	movlw	0
  3647  051E  00F8               	movwf	PWM3_LoadDutyValue@dutyValue
  3648  051F  00F9               	movwf	PWM3_LoadDutyValue@dutyValue+1
  3649  0520  3185  2581  3185   	fcall	_PWM3_LoadDutyValue
  3650                           
  3651                           ;main.c: 148:     PWM4_LoadDutyValue(0);
  3652  0523  3000               	movlw	0
  3653  0524  00F8               	movwf	PWM4_LoadDutyValue@dutyValue
  3654  0525  00F9               	movwf	PWM4_LoadDutyValue@dutyValue+1
  3655  0526  3185  2598  3185   	fcall	_PWM4_LoadDutyValue
  3656  0529                     l283:
  3657  0529  0008               	return
  3658  052A                     __end_of_Dunglai:
  3659                           
  3660                           	psect	text22
  3661  05C6                     __ptext22:	
  3662 ;; *************** function _Dithang *****************
  3663 ;; Defined at:
  3664 ;;		line 132 in file "main.c"
  3665 ;; Parameters:    Size  Location     Type
  3666 ;;		None
  3667 ;; Auto vars:     Size  Location     Type
  3668 ;;		None
  3669 ;; Return value:  Size  Location     Type
  3670 ;;                  1    wreg      void 
  3671 ;; Registers used:
  3672 ;;		wreg, status,2, status,0, pclath, cstack
  3673 ;; Tracked objects:
  3674 ;;		On entry : 0/0
  3675 ;;		On exit  : 0/0
  3676 ;;		Unchanged: 0/0
  3677 ;; Data sizes:     COMMON   BANK0   BANK1   BANK2   BANK3   BANK4
  3678 ;;      Params:         0       0       0       0       0       0
  3679 ;;      Locals:         0       0       0       0       0       0
  3680 ;;      Temps:          0       0       0       0       0       0
  3681 ;;      Totals:         0       0       0       0       0       0
  3682 ;;Total ram usage:        0 bytes
  3683 ;; Hardware stack levels used: 1
  3684 ;; Hardware stack levels required when called: 1
  3685 ;; This function calls:
  3686 ;;		_MotorLeft_set_direction
  3687 ;;		_MotorRight_set_direction
  3688 ;;		_PWM3_LoadDutyValue
  3689 ;;		_PWM4_LoadDutyValue
  3690 ;; This function is called by:
  3691 ;;		_Bluetooth
  3692 ;;		_Doline_Cong
  3693 ;;		_main
  3694 ;;		_Doline_Thang
  3695 ;;		_Diquavach
  3696 ;; This function uses a non-reentrant model
  3697 ;;
  3698                           
  3699  05C6                     _Dithang:	
  3700                           ;psect for function _Dithang
  3701                           
  3702  05C6                     l1547:	
  3703                           ;incstack = 0
  3704                           ; Regs used in _Dithang: [wreg+status,2+status,0+pclath+cstack]
  3705                           
  3706                           
  3707                           ;main.c: 133:     MotorLeft_set_direction(1);
  3708  05C6  3001               	movlw	1
  3709  05C7  3185  25DD  3185   	fcall	_MotorLeft_set_direction
  3710                           
  3711                           ;main.c: 134:     MotorRight_set_direction(1);
  3712  05CA  3001               	movlw	1
  3713  05CB  3185  25FA  3185   	fcall	_MotorRight_set_direction
  3714                           
  3715                           ;main.c: 135:     PWM3_LoadDutyValue(490);
  3716  05CE  30EA               	movlw	234
  3717  05CF  00F8               	movwf	PWM3_LoadDutyValue@dutyValue
  3718  05D0  3001               	movlw	1
  3719  05D1  00F9               	movwf	PWM3_LoadDutyValue@dutyValue+1
  3720  05D2  3185  2581  3185   	fcall	_PWM3_LoadDutyValue
  3721                           
  3722                           ;main.c: 136:     PWM4_LoadDutyValue(500);
  3723  05D5  30F4               	movlw	244
  3724  05D6  00F8               	movwf	PWM4_LoadDutyValue@dutyValue
  3725  05D7  3001               	movlw	1
  3726  05D8  00F9               	movwf	PWM4_LoadDutyValue@dutyValue+1
  3727  05D9  3185  2598  3185   	fcall	_PWM4_LoadDutyValue
  3728  05DC                     l277:
  3729  05DC  0008               	return
  3730  05DD                     __end_of_Dithang:
  3731                           
  3732                           	psect	text23
  3733  05AF                     __ptext23:	
  3734 ;; *************** function _Dilui *****************
  3735 ;; Defined at:
  3736 ;;		line 114 in file "main.c"
  3737 ;; Parameters:    Size  Location     Type
  3738 ;;		None
  3739 ;; Auto vars:     Size  Location     Type
  3740 ;;		None
  3741 ;; Return value:  Size  Location     Type
  3742 ;;                  1    wreg      void 
  3743 ;; Registers used:
  3744 ;;		wreg, status,2, status,0, pclath, cstack
  3745 ;; Tracked objects:
  3746 ;;		On entry : 0/0
  3747 ;;		On exit  : 0/0
  3748 ;;		Unchanged: 0/0
  3749 ;; Data sizes:     COMMON   BANK0   BANK1   BANK2   BANK3   BANK4
  3750 ;;      Params:         0       0       0       0       0       0
  3751 ;;      Locals:         0       0       0       0       0       0
  3752 ;;      Temps:          0       0       0       0       0       0
  3753 ;;      Totals:         0       0       0       0       0       0
  3754 ;;Total ram usage:        0 bytes
  3755 ;; Hardware stack levels used: 1
  3756 ;; Hardware stack levels required when called: 1
  3757 ;; This function calls:
  3758 ;;		_MotorLeft_set_direction
  3759 ;;		_MotorRight_set_direction
  3760 ;;		_PWM3_LoadDutyValue
  3761 ;;		_PWM4_LoadDutyValue
  3762 ;; This function is called by:
  3763 ;;		_Bluetooth
  3764 ;;		_Doline_Cong
  3765 ;;		_Doline_Thang
  3766 ;; This function uses a non-reentrant model
  3767 ;;
  3768                           
  3769  05AF                     _Dilui:	
  3770                           ;psect for function _Dilui
  3771                           
  3772  05AF                     l1541:	
  3773                           ;incstack = 0
  3774                           ; Regs used in _Dilui: [wreg+status,2+status,0+pclath+cstack]
  3775                           
  3776                           
  3777                           ;main.c: 115:     MotorLeft_set_direction(0);
  3778  05AF  3000               	movlw	0
  3779  05B0  3185  25DD  3185   	fcall	_MotorLeft_set_direction
  3780                           
  3781                           ;main.c: 116:     MotorRight_set_direction(0);
  3782  05B3  3000               	movlw	0
  3783  05B4  3185  25FA  3185   	fcall	_MotorRight_set_direction
  3784                           
  3785                           ;main.c: 117:     PWM3_LoadDutyValue(480);
  3786  05B7  30E0               	movlw	224
  3787  05B8  00F8               	movwf	PWM3_LoadDutyValue@dutyValue
  3788  05B9  3001               	movlw	1
  3789  05BA  00F9               	movwf	PWM3_LoadDutyValue@dutyValue+1
  3790  05BB  3185  2581  3185   	fcall	_PWM3_LoadDutyValue
  3791                           
  3792                           ;main.c: 118:     PWM4_LoadDutyValue(480);
  3793  05BE  30E0               	movlw	224
  3794  05BF  00F8               	movwf	PWM4_LoadDutyValue@dutyValue
  3795  05C0  3001               	movlw	1
  3796  05C1  00F9               	movwf	PWM4_LoadDutyValue@dutyValue+1
  3797  05C2  3185  2598  3185   	fcall	_PWM4_LoadDutyValue
  3798  05C5                     l268:
  3799  05C5  0008               	return
  3800  05C6                     __end_of_Dilui:
  3801                           
  3802                           	psect	text24
  3803  0598                     __ptext24:	
  3804 ;; *************** function _PWM4_LoadDutyValue *****************
  3805 ;; Defined at:
  3806 ;;		line 82 in file "mcc_generated_files/pwm4.c"
  3807 ;; Parameters:    Size  Location     Type
  3808 ;;  dutyValue       2    0[COMMON] unsigned short 
  3809 ;; Auto vars:     Size  Location     Type
  3810 ;;		None
  3811 ;; Return value:  Size  Location     Type
  3812 ;;                  1    wreg      void 
  3813 ;; Registers used:
  3814 ;;		wreg, status,2, status,0
  3815 ;; Tracked objects:
  3816 ;;		On entry : 0/0
  3817 ;;		On exit  : 0/0
  3818 ;;		Unchanged: 0/0
  3819 ;; Data sizes:     COMMON   BANK0   BANK1   BANK2   BANK3   BANK4
  3820 ;;      Params:         2       0       0       0       0       0
  3821 ;;      Locals:         0       0       0       0       0       0
  3822 ;;      Temps:          2       0       0       0       0       0
  3823 ;;      Totals:         4       0       0       0       0       0
  3824 ;;Total ram usage:        4 bytes
  3825 ;; Hardware stack levels used: 1
  3826 ;; This function calls:
  3827 ;;		Nothing
  3828 ;; This function is called by:
  3829 ;;		_Dilui
  3830 ;;		_Retrai
  3831 ;;		_Rephai
  3832 ;;		_Dithang
  3833 ;;		_Dunglai
  3834 ;;		_Dithang1
  3835 ;; This function uses a non-reentrant model
  3836 ;;
  3837                           
  3838  0598                     _PWM4_LoadDutyValue:	
  3839                           ;psect for function _PWM4_LoadDutyValue
  3840                           
  3841  0598                     l1469:	
  3842                           ;incstack = 0
  3843                           ; Regs used in _PWM4_LoadDutyValue: [wreg+status,2+status,0]
  3844                           
  3845                           
  3846                           ;mcc_generated_files/pwm4.c: 82: void PWM4_LoadDutyValue(uint16_t dutyValue);mcc_generat
      +                          ed_files/pwm4.c: 83: {;mcc_generated_files/pwm4.c: 85:     CCPR4L = ((dutyValue & 0x03FC
      +                          )>>2);
  3847  0598  0879               	movf	PWM4_LoadDutyValue@dutyValue+1,w
  3848  0599  00FB               	movwf	??_PWM4_LoadDutyValue+1
  3849  059A  0878               	movf	PWM4_LoadDutyValue@dutyValue,w
  3850  059B  00FA               	movwf	??_PWM4_LoadDutyValue
  3851  059C  36FB               	lsrf	??_PWM4_LoadDutyValue+1,f
  3852  059D  0CFA               	rrf	??_PWM4_LoadDutyValue,f
  3853  059E  36FB               	lsrf	??_PWM4_LoadDutyValue+1,f
  3854  059F  0CFA               	rrf	??_PWM4_LoadDutyValue,f
  3855  05A0  087A               	movf	??_PWM4_LoadDutyValue,w
  3856  05A1  0026               	movlb	6	; select bank6
  3857  05A2  0098               	movwf	24	;volatile
  3858                           
  3859                           ;mcc_generated_files/pwm4.c: 88:     CCP4CON = ((uint8_t)(CCP4CON & 0xCF) | ((dutyValue 
      +                          & 0x0003)<<4));
  3860  05A3  0878               	movf	PWM4_LoadDutyValue@dutyValue,w
  3861  05A4  3903               	andlw	3
  3862  05A5  00FA               	movwf	??_PWM4_LoadDutyValue
  3863  05A6  3004               	movlw	4
  3864  05A7                     u1115:
  3865  05A7  35FA               	lslf	??_PWM4_LoadDutyValue,f
  3866  05A8  0B89               	decfsz	9,f
  3867  05A9  2DA7               	goto	u1115
  3868  05AA  081A               	movf	26,w	;volatile
  3869  05AB  39CF               	andlw	207
  3870  05AC  047A               	iorwf	??_PWM4_LoadDutyValue,w
  3871  05AD  009A               	movwf	26	;volatile
  3872  05AE                     l45:
  3873  05AE  0008               	return
  3874  05AF                     __end_of_PWM4_LoadDutyValue:
  3875                           
  3876                           	psect	text25
  3877  0581                     __ptext25:	
  3878 ;; *************** function _PWM3_LoadDutyValue *****************
  3879 ;; Defined at:
  3880 ;;		line 82 in file "mcc_generated_files/pwm3.c"
  3881 ;; Parameters:    Size  Location     Type
  3882 ;;  dutyValue       2    0[COMMON] unsigned short 
  3883 ;; Auto vars:     Size  Location     Type
  3884 ;;		None
  3885 ;; Return value:  Size  Location     Type
  3886 ;;                  1    wreg      void 
  3887 ;; Registers used:
  3888 ;;		wreg, status,2, status,0
  3889 ;; Tracked objects:
  3890 ;;		On entry : 0/0
  3891 ;;		On exit  : 0/0
  3892 ;;		Unchanged: 0/0
  3893 ;; Data sizes:     COMMON   BANK0   BANK1   BANK2   BANK3   BANK4
  3894 ;;      Params:         2       0       0       0       0       0
  3895 ;;      Locals:         0       0       0       0       0       0
  3896 ;;      Temps:          2       0       0       0       0       0
  3897 ;;      Totals:         4       0       0       0       0       0
  3898 ;;Total ram usage:        4 bytes
  3899 ;; Hardware stack levels used: 1
  3900 ;; This function calls:
  3901 ;;		Nothing
  3902 ;; This function is called by:
  3903 ;;		_Dilui
  3904 ;;		_Retrai
  3905 ;;		_Rephai
  3906 ;;		_Dithang
  3907 ;;		_Dunglai
  3908 ;;		_Dithang1
  3909 ;; This function uses a non-reentrant model
  3910 ;;
  3911                           
  3912  0581                     _PWM3_LoadDutyValue:	
  3913                           ;psect for function _PWM3_LoadDutyValue
  3914                           
  3915  0581                     l1471:	
  3916                           ;incstack = 0
  3917                           ; Regs used in _PWM3_LoadDutyValue: [wreg+status,2+status,0]
  3918                           
  3919                           
  3920                           ;mcc_generated_files/pwm3.c: 82: void PWM3_LoadDutyValue(uint16_t dutyValue);mcc_generat
      +                          ed_files/pwm3.c: 83: {;mcc_generated_files/pwm3.c: 85:     CCPR3L = ((dutyValue & 0x03FC
      +                          )>>2);
  3921  0581  0879               	movf	PWM3_LoadDutyValue@dutyValue+1,w
  3922  0582  00FB               	movwf	??_PWM3_LoadDutyValue+1
  3923  0583  0878               	movf	PWM3_LoadDutyValue@dutyValue,w
  3924  0584  00FA               	movwf	??_PWM3_LoadDutyValue
  3925  0585  36FB               	lsrf	??_PWM3_LoadDutyValue+1,f
  3926  0586  0CFA               	rrf	??_PWM3_LoadDutyValue,f
  3927  0587  36FB               	lsrf	??_PWM3_LoadDutyValue+1,f
  3928  0588  0CFA               	rrf	??_PWM3_LoadDutyValue,f
  3929  0589  087A               	movf	??_PWM3_LoadDutyValue,w
  3930  058A  0026               	movlb	6	; select bank6
  3931  058B  0091               	movwf	17	;volatile
  3932                           
  3933                           ;mcc_generated_files/pwm3.c: 88:     CCP3CON = ((uint8_t)(CCP3CON & 0xCF) | ((dutyValue 
      +                          & 0x0003)<<4));
  3934  058C  0878               	movf	PWM3_LoadDutyValue@dutyValue,w
  3935  058D  3903               	andlw	3
  3936  058E  00FA               	movwf	??_PWM3_LoadDutyValue
  3937  058F  3004               	movlw	4
  3938  0590                     u1125:
  3939  0590  35FA               	lslf	??_PWM3_LoadDutyValue,f
  3940  0591  0B89               	decfsz	9,f
  3941  0592  2D90               	goto	u1125
  3942  0593  0813               	movf	19,w	;volatile
  3943  0594  39CF               	andlw	207
  3944  0595  047A               	iorwf	??_PWM3_LoadDutyValue,w
  3945  0596  0093               	movwf	19	;volatile
  3946  0597                     l59:
  3947  0597  0008               	return
  3948  0598                     __end_of_PWM3_LoadDutyValue:
  3949                           
  3950                           	psect	text26
  3951  05FA                     __ptext26:	
  3952 ;; *************** function _MotorRight_set_direction *****************
  3953 ;; Defined at:
  3954 ;;		line 70 in file "main.c"
  3955 ;; Parameters:    Size  Location     Type
  3956 ;;  dir             1    wreg     unsigned char 
  3957 ;; Auto vars:     Size  Location     Type
  3958 ;;  dir             1    0[COMMON] unsigned char 
  3959 ;; Return value:  Size  Location     Type
  3960 ;;                  1    wreg      void 
  3961 ;; Registers used:
  3962 ;;		wreg, status,2, status,0
  3963 ;; Tracked objects:
  3964 ;;		On entry : 0/0
  3965 ;;		On exit  : 0/0
  3966 ;;		Unchanged: 0/0
  3967 ;; Data sizes:     COMMON   BANK0   BANK1   BANK2   BANK3   BANK4
  3968 ;;      Params:         0       0       0       0       0       0
  3969 ;;      Locals:         1       0       0       0       0       0
  3970 ;;      Temps:          0       0       0       0       0       0
  3971 ;;      Totals:         1       0       0       0       0       0
  3972 ;;Total ram usage:        1 bytes
  3973 ;; Hardware stack levels used: 1
  3974 ;; This function calls:
  3975 ;;		Nothing
  3976 ;; This function is called by:
  3977 ;;		_Dilui
  3978 ;;		_Retrai
  3979 ;;		_Rephai
  3980 ;;		_Dithang
  3981 ;;		_Dunglai
  3982 ;;		_Dithang1
  3983 ;; This function uses a non-reentrant model
  3984 ;;
  3985                           
  3986  05FA                     _MotorRight_set_direction:	
  3987                           ;psect for function _MotorRight_set_direction
  3988                           
  3989                           
  3990                           ;incstack = 0
  3991                           ; Regs used in _MotorRight_set_direction: [wreg+status,2+status,0]
  3992                           ;MotorRight_set_direction@dir stored from wreg
  3993  05FA  00F8               	movwf	MotorRight_set_direction@dir
  3994  05FB                     l1479:
  3995                           
  3996                           ;main.c: 71:     if (dir == 0){
  3997  05FB  0878               	movf	MotorRight_set_direction@dir,w
  3998  05FC  1D03               	btfss	3,2
  3999  05FD  2DFF               	goto	u1131
  4000  05FE  2E00               	goto	u1130
  4001  05FF                     u1131:
  4002  05FF  2E04               	goto	l1483
  4003  0600                     u1130:
  4004  0600                     l1481:
  4005                           
  4006                           ;main.c: 72:         LATBbits.LATB3 = 1;
  4007  0600  0022               	movlb	2	; select bank2
  4008  0601  158D               	bsf	13,3	;volatile
  4009                           
  4010                           ;main.c: 73:         LATBbits.LATB4 = 0;
  4011  0602  120D               	bcf	13,4	;volatile
  4012                           
  4013                           ;main.c: 74:     }
  4014  0603  2E16               	goto	l247
  4015  0604                     l1483:
  4016  0604  0378               	decf	MotorRight_set_direction@dir,w
  4017  0605  1D03               	btfss	3,2
  4018  0606  2E08               	goto	u1141
  4019  0607  2E09               	goto	u1140
  4020  0608                     u1141:
  4021  0608  2E0D               	goto	l1487
  4022  0609                     u1140:
  4023  0609                     l1485:
  4024                           
  4025                           ;main.c: 76:         LATBbits.LATB3 = 0;
  4026  0609  0022               	movlb	2	; select bank2
  4027  060A  118D               	bcf	13,3	;volatile
  4028                           
  4029                           ;main.c: 77:         LATBbits.LATB4 = 1;
  4030  060B  160D               	bsf	13,4	;volatile
  4031                           
  4032                           ;main.c: 78:     }
  4033  060C  2E16               	goto	l247
  4034  060D                     l1487:
  4035  060D  3002               	movlw	2
  4036  060E  0678               	xorwf	MotorRight_set_direction@dir,w
  4037  060F  1D03               	btfss	3,2
  4038  0610  2E12               	goto	u1151
  4039  0611  2E13               	goto	u1150
  4040  0612                     u1151:
  4041  0612  2E16               	goto	l247
  4042  0613                     u1150:
  4043  0613                     l1489:
  4044                           
  4045                           ;main.c: 80:         LATBbits.LATB3 = 1;
  4046  0613  0022               	movlb	2	; select bank2
  4047  0614  158D               	bsf	13,3	;volatile
  4048                           
  4049                           ;main.c: 81:         LATBbits.LATB4 = 1;
  4050  0615  160D               	bsf	13,4	;volatile
  4051  0616                     l247:
  4052  0616  0008               	return
  4053  0617                     __end_of_MotorRight_set_direction:
  4054                           
  4055                           	psect	text27
  4056  05DD                     __ptext27:	
  4057 ;; *************** function _MotorLeft_set_direction *****************
  4058 ;; Defined at:
  4059 ;;		line 84 in file "main.c"
  4060 ;; Parameters:    Size  Location     Type
  4061 ;;  dir             1    wreg     unsigned char 
  4062 ;; Auto vars:     Size  Location     Type
  4063 ;;  dir             1    0[COMMON] unsigned char 
  4064 ;; Return value:  Size  Location     Type
  4065 ;;                  1    wreg      void 
  4066 ;; Registers used:
  4067 ;;		wreg, status,2, status,0
  4068 ;; Tracked objects:
  4069 ;;		On entry : 0/0
  4070 ;;		On exit  : 0/0
  4071 ;;		Unchanged: 0/0
  4072 ;; Data sizes:     COMMON   BANK0   BANK1   BANK2   BANK3   BANK4
  4073 ;;      Params:         0       0       0       0       0       0
  4074 ;;      Locals:         1       0       0       0       0       0
  4075 ;;      Temps:          0       0       0       0       0       0
  4076 ;;      Totals:         1       0       0       0       0       0
  4077 ;;Total ram usage:        1 bytes
  4078 ;; Hardware stack levels used: 1
  4079 ;; This function calls:
  4080 ;;		Nothing
  4081 ;; This function is called by:
  4082 ;;		_Dilui
  4083 ;;		_Retrai
  4084 ;;		_Rephai
  4085 ;;		_Dithang
  4086 ;;		_Dunglai
  4087 ;;		_Dithang1
  4088 ;; This function uses a non-reentrant model
  4089 ;;
  4090                           
  4091  05DD                     _MotorLeft_set_direction:	
  4092                           ;psect for function _MotorLeft_set_direction
  4093                           
  4094                           
  4095                           ;incstack = 0
  4096                           ; Regs used in _MotorLeft_set_direction: [wreg+status,2+status,0]
  4097                           ;MotorLeft_set_direction@dir stored from wreg
  4098  05DD  00F8               	movwf	MotorLeft_set_direction@dir
  4099  05DE                     l1491:
  4100                           
  4101                           ;main.c: 85:     if (dir == 0){
  4102  05DE  0878               	movf	MotorLeft_set_direction@dir,w
  4103  05DF  1D03               	btfss	3,2
  4104  05E0  2DE2               	goto	u1161
  4105  05E1  2DE3               	goto	u1160
  4106  05E2                     u1161:
  4107  05E2  2DE7               	goto	l1495
  4108  05E3                     u1160:
  4109  05E3                     l1493:
  4110                           
  4111                           ;main.c: 86:         LATBbits.LATB7 = 1;
  4112  05E3  0022               	movlb	2	; select bank2
  4113  05E4  178D               	bsf	13,7	;volatile
  4114                           
  4115                           ;main.c: 87:         LATBbits.LATB6 = 0;
  4116  05E5  130D               	bcf	13,6	;volatile
  4117                           
  4118                           ;main.c: 88:     }
  4119  05E6  2DF9               	goto	l255
  4120  05E7                     l1495:
  4121  05E7  0378               	decf	MotorLeft_set_direction@dir,w
  4122  05E8  1D03               	btfss	3,2
  4123  05E9  2DEB               	goto	u1171
  4124  05EA  2DEC               	goto	u1170
  4125  05EB                     u1171:
  4126  05EB  2DF0               	goto	l1499
  4127  05EC                     u1170:
  4128  05EC                     l1497:
  4129                           
  4130                           ;main.c: 90:         LATBbits.LATB7 = 0;
  4131  05EC  0022               	movlb	2	; select bank2
  4132  05ED  138D               	bcf	13,7	;volatile
  4133                           
  4134                           ;main.c: 91:         LATBbits.LATB6 = 1;
  4135  05EE  170D               	bsf	13,6	;volatile
  4136                           
  4137                           ;main.c: 92:     }
  4138  05EF  2DF9               	goto	l255
  4139  05F0                     l1499:
  4140  05F0  3002               	movlw	2
  4141  05F1  0678               	xorwf	MotorLeft_set_direction@dir,w
  4142  05F2  1D03               	btfss	3,2
  4143  05F3  2DF5               	goto	u1181
  4144  05F4  2DF6               	goto	u1180
  4145  05F5                     u1181:
  4146  05F5  2DF9               	goto	l255
  4147  05F6                     u1180:
  4148  05F6                     l1501:
  4149                           
  4150                           ;main.c: 94:         LATBbits.LATB7 = 1;
  4151  05F6  0022               	movlb	2	; select bank2
  4152  05F7  178D               	bsf	13,7	;volatile
  4153                           
  4154                           ;main.c: 95:         LATBbits.LATB6 = 1;
  4155  05F8  170D               	bsf	13,6	;volatile
  4156  05F9                     l255:
  4157  05F9  0008               	return
  4158  05FA                     __end_of_MotorLeft_set_direction:
  4159  007E                     btemp	set	126	;btemp
  4160  007E                     wtemp0	set	126
  4161                           
  4162                           	psect	idloc
  4163                           
  4164                           ;Config register IDLOC0 @ 0x8000
  4165                           ;	unspecified, using default values
  4166  8000                     	org	32768
  4167  8000  3FFF               	dw	16383
  4168                           
  4169                           ;Config register IDLOC1 @ 0x8001
  4170                           ;	unspecified, using default values
  4171  8001                     	org	32769
  4172  8001  3FFF               	dw	16383
  4173                           
  4174                           ;Config register IDLOC2 @ 0x8002
  4175                           ;	unspecified, using default values
  4176  8002                     	org	32770
  4177  8002  3FFF               	dw	16383
  4178                           
  4179                           ;Config register IDLOC3 @ 0x8003
  4180                           ;	unspecified, using default values
  4181  8003                     	org	32771
  4182  8003  3FFF               	dw	16383
  4183                           
  4184                           	psect	config
  4185                           
  4186                           ;Config register CONFIG1 @ 0x8007
  4187                           ;	Oscillator Selection
  4188                           ;	FOSC = INTOSC, INTOSC oscillator: I/O function on CLKIN pin
  4189                           ;	Watchdog Timer Enable
  4190                           ;	WDTE = OFF, WDT disabled
  4191                           ;	Power-up Timer Enable
  4192                           ;	PWRTE = OFF, PWRT disabled
  4193                           ;	MCLR Pin Function Select
  4194                           ;	MCLRE = ON, MCLR/VPP pin function is MCLR
  4195                           ;	Flash Program Memory Code Protection
  4196                           ;	CP = OFF, Program memory code protection is disabled
  4197                           ;	Data Memory Code Protection
  4198                           ;	CPD = OFF, Data memory code protection is disabled
  4199                           ;	Brown-out Reset Enable
  4200                           ;	BOREN = ON, Brown-out Reset enabled
  4201                           ;	Clock Out Enable
  4202                           ;	CLKOUTEN = OFF, CLKOUT function is disabled. I/O or oscillator function on the CLKOUT 
      +                          pin
  4203                           ;	Internal/External Switchover
  4204                           ;	IESO = ON, Internal/External Switchover mode is enabled
  4205                           ;	Fail-Safe Clock Monitor Enable
  4206                           ;	FCMEN = ON, Fail-Safe Clock Monitor is enabled
  4207  8007                     	org	32775
  4208  8007  3FE4               	dw	16356
  4209                           
  4210                           ;Config register CONFIG2 @ 0x8008
  4211                           ;	Flash Memory Self-Write Protection
  4212                           ;	WRT = OFF, Write protection off
  4213                           ;	PLL Enable
  4214                           ;	PLLEN = OFF, 4x PLL disabled
  4215                           ;	Stack Overflow/Underflow Reset Enable
  4216                           ;	STVREN = ON, Stack Overflow or Underflow will cause a Reset
  4217                           ;	Brown-out Reset Voltage Selection
  4218                           ;	BORV = LO, Brown-out Reset Voltage (Vbor), low trip point selected.
  4219                           ;	Low-Voltage Programming Enable
  4220                           ;	LVP = ON, Low-voltage programming enabled
  4221  8008                     	org	32776
  4222  8008  3EFF               	dw	16127

Data Sizes:
    Strings     0
    Constant    0
    Data        0
    BSS         28
    Persistent  38
    Stack       0

Auto Spaces:
    Space          Size  Autos    Used
    COMMON           14      6      14
    BANK0            80      0      26
    BANK1            80      0       0
    BANK2            80      0       0
    BANK3            80      0       0
    BANK4            48      0       0

Pointer List with Targets:

    EUSART_SetErrorHandler@interruptHandler	PTR FTN()void  size(2) Largest target is 1
		 -> EUSART_DefaultErrorHandler(), 

    EUSART_ErrorHandler	PTR FTN()void  size(2) Largest target is 1
		 -> Absolute function(), EUSART_DefaultErrorHandler(), 

    EUSART_SetOverrunErrorHandler@interruptHandler	PTR FTN()void  size(2) Largest target is 1
		 -> EUSART_DefaultOverrunErrorHandler(), 

    EUSART_OverrunErrorHandler	PTR FTN()void  size(2) Largest target is 1
		 -> Absolute function(), EUSART_DefaultOverrunErrorHandler(), 

    EUSART_SetFramingErrorHandler@interruptHandler	PTR FTN()void  size(2) Largest target is 1
		 -> EUSART_DefaultFramingErrorHandler(), 

    EUSART_FramingErrorHandler	PTR FTN()void  size(2) Largest target is 1
		 -> Absolute function(), EUSART_DefaultFramingErrorHandler(), 


Critical Paths under _main in COMMON

    _main->_Bluetooth
    _EUSART_Initialize->_EUSART_SetErrorHandler
    _EUSART_Initialize->_EUSART_SetFramingErrorHandler
    _EUSART_Initialize->_EUSART_SetOverrunErrorHandler
    _Retrai->_PWM3_LoadDutyValue
    _Retrai->_PWM4_LoadDutyValue
    _Rephai->_PWM3_LoadDutyValue
    _Rephai->_PWM4_LoadDutyValue
    _Dunglai->_PWM3_LoadDutyValue
    _Dunglai->_PWM4_LoadDutyValue
    _Dithang->_PWM3_LoadDutyValue
    _Dithang->_PWM4_LoadDutyValue
    _Dilui->_PWM3_LoadDutyValue
    _Dilui->_PWM4_LoadDutyValue

Critical Paths under _main in BANK0

    None.

Critical Paths under _main in BANK1

    None.

Critical Paths under _main in BANK2

    None.

Critical Paths under _main in BANK3

    None.

Critical Paths under _main in BANK4

    None.

Call Graph Tables:

 ---------------------------------------------------------------------------------
 (Depth) Function   	        Calls       Base Space   Used Autos Params    Refs
 ---------------------------------------------------------------------------------
 (0) _main                                                 1     1      0   12822
                                              5 COMMON     1     1      0
                          _Bluetooth
                            _Dithang
                        _Doline_Cong
                                _Kep
                  _SYSTEM_Initialize
 ---------------------------------------------------------------------------------
 (1) _SYSTEM_Initialize                                    0     0      0     294
                  _EUSART_Initialize
              _OSCILLATOR_Initialize
             _PIN_MANAGER_Initialize
                    _PWM3_Initialize
                    _PWM4_Initialize
                    _TMR2_Initialize
                     _WDT_Initialize
 ---------------------------------------------------------------------------------
 (2) _WDT_Initialize                                       0     0      0       0
 ---------------------------------------------------------------------------------
 (2) _TMR2_Initialize                                      0     0      0       0
 ---------------------------------------------------------------------------------
 (2) _PWM4_Initialize                                      0     0      0       0
 ---------------------------------------------------------------------------------
 (2) _PWM3_Initialize                                      0     0      0       0
 ---------------------------------------------------------------------------------
 (2) _PIN_MANAGER_Initialize                               0     0      0       0
 ---------------------------------------------------------------------------------
 (2) _OSCILLATOR_Initialize                                0     0      0       0
 ---------------------------------------------------------------------------------
 (2) _EUSART_Initialize                                    0     0      0     294
             _EUSART_SetErrorHandler
      _EUSART_SetFramingErrorHandler
      _EUSART_SetOverrunErrorHandler
 ---------------------------------------------------------------------------------
 (3) _EUSART_SetOverrunErrorHandler                        2     0      2      98
                                              0 COMMON     2     0      2
 ---------------------------------------------------------------------------------
 (3) _EUSART_SetFramingErrorHandler                        2     0      2      98
                                              0 COMMON     2     0      2
 ---------------------------------------------------------------------------------
 (3) _EUSART_SetErrorHandler                               2     0      2      98
                                              0 COMMON     2     0      2
 ---------------------------------------------------------------------------------
 (1) _Kep                                                  0     0      0    1162
                            _Dunglai
                    _Servo_Motion_CW
 ---------------------------------------------------------------------------------
 (2) _Servo_Motion_CW                                      3     3      0      30
                                              0 COMMON     3     3      0
 ---------------------------------------------------------------------------------
 (1) _Doline_Cong                                          0     0      0    4528
                              _Dilui
                            _Dithang
                             _Rephai
                             _Retrai
 ---------------------------------------------------------------------------------
 (1) _Bluetooth                                            1     1      0    5706
                                              4 COMMON     1     1      0
                              _Dilui
                            _Dithang
                            _Dunglai
                        _EUSART_Read
                 _EUSART_is_rx_ready
                             _Rephai
                             _Retrai
                   _Servo_Motion_CCW
 ---------------------------------------------------------------------------------
 (2) _Servo_Motion_CCW                                     3     3      0      46
                                              0 COMMON     3     3      0
 ---------------------------------------------------------------------------------
 (2) _Retrai                                               0     0      0    1132
            _MotorLeft_set_direction
           _MotorRight_set_direction
                 _PWM3_LoadDutyValue
                 _PWM4_LoadDutyValue
 ---------------------------------------------------------------------------------
 (2) _Rephai                                               0     0      0    1132
            _MotorLeft_set_direction
           _MotorRight_set_direction
                 _PWM3_LoadDutyValue
                 _PWM4_LoadDutyValue
 ---------------------------------------------------------------------------------
 (2) _EUSART_is_rx_ready                                   0     0      0       0
 ---------------------------------------------------------------------------------
 (2) _EUSART_Read                                          0     0      0       0
 ---------------------------------------------------------------------------------
 (2) _Dunglai                                              0     0      0    1132
            _MotorLeft_set_direction
           _MotorRight_set_direction
                 _PWM3_LoadDutyValue
                 _PWM4_LoadDutyValue
 ---------------------------------------------------------------------------------
 (2) _Dithang                                              0     0      0    1132
            _MotorLeft_set_direction
           _MotorRight_set_direction
                 _PWM3_LoadDutyValue
                 _PWM4_LoadDutyValue
 ---------------------------------------------------------------------------------
 (2) _Dilui                                                0     0      0    1132
            _MotorLeft_set_direction
           _MotorRight_set_direction
                 _PWM3_LoadDutyValue
                 _PWM4_LoadDutyValue
 ---------------------------------------------------------------------------------
 (3) _PWM4_LoadDutyValue                                   4     2      2     500
                                              0 COMMON     4     2      2
 ---------------------------------------------------------------------------------
 (3) _PWM3_LoadDutyValue                                   4     2      2     500
                                              0 COMMON     4     2      2
 ---------------------------------------------------------------------------------
 (3) _MotorRight_set_direction                             1     1      0      66
                                              0 COMMON     1     1      0
 ---------------------------------------------------------------------------------
 (3) _MotorLeft_set_direction                              1     1      0      66
                                              0 COMMON     1     1      0
 ---------------------------------------------------------------------------------
 Estimated maximum stack depth 3
 ---------------------------------------------------------------------------------

 Call Graph Graphs:

 _main (ROOT)
   _Bluetooth
     _Dilui
       _MotorLeft_set_direction
       _MotorRight_set_direction
       _PWM3_LoadDutyValue
       _PWM4_LoadDutyValue
     _Dithang
       _MotorLeft_set_direction
       _MotorRight_set_direction
       _PWM3_LoadDutyValue
       _PWM4_LoadDutyValue
     _Dunglai
       _MotorLeft_set_direction
       _MotorRight_set_direction
       _PWM3_LoadDutyValue
       _PWM4_LoadDutyValue
     _EUSART_Read
     _EUSART_is_rx_ready
     _Rephai
       _MotorLeft_set_direction
       _MotorRight_set_direction
       _PWM3_LoadDutyValue
       _PWM4_LoadDutyValue
     _Retrai
       _MotorLeft_set_direction
       _MotorRight_set_direction
       _PWM3_LoadDutyValue
       _PWM4_LoadDutyValue
     _Servo_Motion_CCW
   _Dithang
   _Doline_Cong
     _Dilui
     _Dithang
     _Rephai
     _Retrai
   _Kep
     _Dunglai
     _Servo_Motion_CW
   _SYSTEM_Initialize
     _EUSART_Initialize
       _EUSART_SetErrorHandler
       _EUSART_SetFramingErrorHandler
       _EUSART_SetOverrunErrorHandler
     _OSCILLATOR_Initialize
     _PIN_MANAGER_Initialize
     _PWM3_Initialize
     _PWM4_Initialize
     _TMR2_Initialize
     _WDT_Initialize

 Address spaces:
Name               Size   Autos  Total    Cost      Usage
BIGRAM             170      0       0       0        0.0%
EEDATA             100      0       0       0        0.0%
NULL                 0      0       0       0        0.0%
CODE                 0      0       0       0        0.0%
BITCOMMON            E      0       0       1        0.0%
BITSFR0              0      0       0       1        0.0%
SFR0                 0      0       0       1        0.0%
COMMON               E      6       E       2      100.0%
BITSFR1              0      0       0       2        0.0%
SFR1                 0      0       0       2        0.0%
BITSFR2              0      0       0       3        0.0%
SFR2                 0      0       0       3        0.0%
STACK                0      0       0       3        0.0%
BITSFR3              0      0       0       4        0.0%
SFR3                 0      0       0       4        0.0%
ABS                  0      0      28       4        0.0%
BITBANK0            50      0       0       5        0.0%
BITSFR4              0      0       0       5        0.0%
SFR4                 0      0       0       5        0.0%
BANK0               50      0      1A       6       32.5%
BITSFR5              0      0       0       6        0.0%
SFR5                 0      0       0       6        0.0%
BITBANK1            50      0       0       7        0.0%
BITSFR6              0      0       0       7        0.0%
SFR6                 0      0       0       7        0.0%
BANK1               50      0       0       8        0.0%
BITSFR7              0      0       0       8        0.0%
SFR7                 0      0       0       8        0.0%
BITBANK2            50      0       0       9        0.0%
BITSFR8              0      0       0       9        0.0%
SFR8                 0      0       0       9        0.0%
BANK2               50      0       0      10        0.0%
BITSFR9              0      0       0      10        0.0%
SFR9                 0      0       0      10        0.0%
BITBANK3            50      0       0      11        0.0%
BITSFR10             0      0       0      11        0.0%
SFR10                0      0       0      11        0.0%
BANK3               50      0       0      12        0.0%
BITSFR11             0      0       0      12        0.0%
SFR11                0      0       0      12        0.0%
BITBANK4            30      0       0      13        0.0%
BITSFR12             0      0       0      13        0.0%
SFR12                0      0       0      13        0.0%
BANK4               30      0       0      14        0.0%
BITSFR13             0      0       0      14        0.0%
SFR13                0      0       0      14        0.0%
BITSFR14             0      0       0      15        0.0%
SFR14                0      0       0      15        0.0%
DATA                 0      0      28      15        0.0%
BITSFR15             0      0       0      16        0.0%
SFR15                0      0       0      16        0.0%
BITSFR16             0      0       0      17        0.0%
SFR16                0      0       0      17        0.0%
BITSFR17             0      0       0      18        0.0%
SFR17                0      0       0      18        0.0%
BITSFR18             0      0       0      19        0.0%
SFR18                0      0       0      19        0.0%
BITSFR19             0      0       0      20        0.0%
SFR19                0      0       0      20        0.0%
BITSFR20             0      0       0      21        0.0%
SFR20                0      0       0      21        0.0%
BITSFR21             0      0       0      22        0.0%
SFR21                0      0       0      22        0.0%
BITSFR22             0      0       0      23        0.0%
SFR22                0      0       0      23        0.0%
BITSFR23             0      0       0      24        0.0%
SFR23                0      0       0      24        0.0%
BITSFR24             0      0       0      25        0.0%
SFR24                0      0       0      25        0.0%
BITSFR25             0      0       0      26        0.0%
SFR25                0      0       0      26        0.0%
BITSFR26             0      0       0      27        0.0%
SFR26                0      0       0      27        0.0%
BITSFR27             0      0       0      28        0.0%
SFR27                0      0       0      28        0.0%
BITSFR28             0      0       0      29        0.0%
SFR28                0      0       0      29        0.0%
BITSFR29             0      0       0      30        0.0%
SFR29                0      0       0      30        0.0%
BITSFR30             0      0       0      31        0.0%
SFR30                0      0       0      31        0.0%
BITSFR31             0      0       0      32        0.0%
SFR31                0      0       0      32        0.0%


Microchip Technology PIC Macro Assembler V2.36 build 20220127204148 
Symbol Table                                                                                   Tue Jun 21 16:36:58 2022

                                           l31 04BA                                             l25 0580  
                                           l42 04F8                                             l28 04DE  
                                           l45 05AE                                             l56 04EF  
                                           l59 0597                                             l84 053E  
                   MotorLeft_set_direction@dir 0078                      ??_MotorLeft_set_direction 0078  
                                          l100 04E6                                            l201 04CB  
                                          l204 04D1                                            l207 04C5  
                                          l320 07EC                                            l313 07E3  
                                          l170 04BF                                            l162 0637  
                                          l331 070A                                            l323 06D0  
                                          l332 0734                                            l260 0680  
                                          l333 0717                                            l325 06E0  
                                          l341 0505                                            l406 06AA  
                                          l255 05F9                                            l247 0616  
                                          l183 0514                                            l271 056A  
                                          l263 063A                                            l335 0727  
                                          l327 06F0                                            l265 065A  
                                          l329 06FD                                            l274 0554  
                                          l338 0734                                            l258 065D  
                                          l283 0529                                            l179 0506  
                                          l268 05C5                                            l277 05DC  
                                          l286 07E4                                            _CMD 002A  
                                          u110 0680                                            u111 067F  
                                          u115 067C                                            _PR2 001B  
                                          _Kep 04F9                                            _dem 0072  
               ?_EUSART_SetFramingErrorHandler 0078                                _TMR2_Initialize 04DF  
                              _PWM4_Initialize 04F0                                            wreg 0009  
                                 ?_EUSART_Read 0078                                           ?_Kep 0078  
                                         l1101 04E3                                           l1103 04E4  
                                         l1141 0665                                           l1133 065B  
                                         l1061 0534                                           l1071 053D  
                                         l1063 0536                                           l1055 052A  
                                         l1073 04D8                                           l1065 0538  
                                         l1057 052D                                           l1081 04F0  
                                         l1139 065F                                           l1075 04DB  
                                         l1067 0539                                           l1059 0530  
                                         l1091 04EA                                           l1083 04F3  
                                         l1501 05F6                                           l1077 04DC  
                                         l1069 053B                                           l1093 04EB  
                                         l1085 04F4                                           l1511 062F  
                                         l1503 0617                                           l1095 04EC  
                                         l1087 04F5                                           l1079 04B7  
                                         l1521 050B                                           l1601 07B1  
                                         l1513 0636                                           l1505 0620  
                                         l1089 04E7                                           l1097 04DF  
                                         l1523 050C                                           l1515 04BB  
                                         l1531 0638                                           l1611 07CB  
                                         l1603 07B7                                           l1507 0621  
                                         l1099 04E2                                           l1541 05AF  
                                         l1525 0511                                           l1613 07CF  
                                         l1605 07BB                                           l1621 06BF  
                                         l1509 0628                                           l1471 0581  
                                         l1527 0513                                           l1519 0506  
                                         l1543 0555                                           l1615 07D5  
                                         l1607 07C1                                           l1631 06D8  
                                         l1623 06C4                                           l1551 056B  
                                         l1481 0600                                           l1545 053F  
                                         l1537 063C                                           l1617 07D9  
                                         l1609 07C5                                           l1561 0748  
                                         l1553 0735                                           l1641 06F4  
                                         l1633 06DC                                           l1625 06C8  
                                         l1473 04C6                                           l1801 0688  
                                         l1491 05DE                                           l1483 0604  
                                         l1547 05C6                                           l1539 0640  
                                         l1619 07DF                                           l1571 0764  
                                         l1563 074E                                           l1555 0736  
                                         l1643 06F8                                           l1635 06E4  
                                         l1627 06CC                                           l1475 04CC  
                                         l1811 06A4                                           l1803 068F  
                                         l1493 05E3                                           l1485 0609  
                                         l1469 0598                                           l1549 0515  
                                         l1581 077F                                           l1573 0769  
                                         l1565 0753                                           l1557 073D  
                                         l1661 071F                                           l1653 070E  
                                         l1637 06E8                                           l1629 06D4  
                                         l1477 04C0                                           l1813 06AE  
                                         l1805 0695                                           l1495 05E7  
                                         l1487 060D                                           l1479 05FB  
                                         l1591 079B                                           l1583 0785  
                                         l1575 076F                                           l1567 0759  
                                         l1559 0743                                           l1663 0723  
                                         l1655 0712                                           l1647 0701  
                                         l1639 06EC                                           l1671 04F9  
                                         l1815 06B2                                           l1807 069C  
                                         l1497 05EC                                           l1489 0613  
                                         l1593 07A0                                           l1585 078A  
                                         l1577 0774                                           l1569 075E  
                                         l1665 072B                                           l1649 0705  
                                         l1673 04FF                                           l1817 06B5  
                                         l1809 069F                                           l1499 05F0  
                                         l1587 0790                                           l1579 077A  
                                         l1667 072F                                           l1659 071B  
                                         l1597 07A7                                           l1589 0795  
                                         l1599 07AD                                           l1797 0681  
                                         l1799 0685                                           _CMD1 0020  
                                         u1200 0511                                           u1201 0510  
                                         u1130 0600                                           u1210 065A  
                                         u1131 05FF                                           u1115 05A7  
                                         u1211 0659                                           u1140 0609  
                                         u1300 079B                                           u1220 0743  
                                         u1141 0608                                           u1125 0590  
                                         u1301 079A                                           u1221 0742  
                                         u1150 0613                                           u1310 07A6  
                                         u1230 074E                                           u2110 069B  
                                         u1151 0612                                           u1215 0656  
                                         u1311 07A5                                           u1231 074D  
                                         u2111 069A                                           u1160 05E3  
                                         u1320 07AD                                           u1240 0759  
                                         u1400 06C8                                           u2120 06A4  
                                         u1161 05E2                                           u1321 07AC  
                                         u1241 0758                                           u1401 06C7  
                                         u2121 06A3                                           u1170 05EC  
                                         u1330 07B7                                           u1250 0764  
                                         u1410 06CC                                           u2130 06AA  
                                         u1171 05EB                                           u1331 07B6  
                                         u1251 0763                                           u1411 06CB  
                                         u2131 06A9                                           u1180 05F6  
                                         u1340 07C1                                           u1260 076F  
                                         u1500 06FC                                           u1420 06D4  
                                         u2140 06AE                                           u1181 05F5  
                                         u1341 07C0                                           u1261 076E  
                                         u1501 06FB                                           u1421 06D3  
                                         u2141 06AD                                           _LATA 010C  
                                         u1190 050B                                           u1350 07CB  
                                         u1270 077A                                           u1510 0701  
                                         u1430 06D8                                           u2150 06BC  
                                         _LATB 010D                                           u1191 050A  
                                         u2207 0645                                           u1351 07CA  
                                         u1271 0779                                           u1511 0700  
                                         u1431 06D7                                           u2151 06BB  
                                         u1360 07D5                                           u1280 0785  
                                         u1600 072B                                           u1520 0705  
                                         u1440 06DC                                           u1361 07D4  
                                         u1281 0784                                           u1601 072A  
                                         u1521 0704                                           u1441 06DB  
                                         u1370 07DF                                           u1290 0790  
                                         u1610 072F                                           u1530 0709  
                                         u1450 06E4                                           u1371 07DE  
                                         u1291 078F                                           u1611 072E  
                                         u1531 0708                                           u1451 06E3  
                                         u1380 07EC                                           u1620 0733  
                                         u1540 070E                                           u1460 06E8  
                                         u1381 07EB                                           u1621 0732  
                                         u1541 070D                                           u1461 06E7  
                                         u1550 0712                                           u1470 06EC  
                                         u1390 06C4                                           u1551 0711  
                                         u1471 06EB                                           u1391 06C3  
                                         u2167 068B                                           u1560 0716  
                                         u1480 06F4                                           u1561 0715  
                                         u1481 06F3                                           u2177 0660  
                                         u1570 071B                                           u1490 06F8  
                                         u1571 071A                                           u1491 06F7  
                                         u2187 066A                                           u1580 071F  
                                         u2197 063D                                           u1581 071E  
                                         u1590 0723                                           u1591 0722  
                                         _TMR2 001A                                           _WPUA 020C  
                                         _WPUB 020D                                           _main 0681  
                                         fsr0h 0005                                           indf0 0000  
                                         fsr0l 0004                                           btemp 007E  
                                         start 0002                               ?_Servo_Motion_CW 0078  
                              __end_of_Dithang 05DD                                __end_of_Dunglai 052A  
                                        ??_Kep 007C                  __end_of_OSCILLATOR_Initialize 04DF  
                                        ?_main 0078                            __end_of_Doline_Cong 0735  
                                        _T2CON 001C                                          _RCREG 0199  
                                        _RCSTA 019D                             _PWM4_LoadDutyValue 0598  
                                        _TRISA 008C                                          _TRISB 008D  
                                        _TXREG 019A                                          _TXSTA 019E  
                                        _Dilui 05AF                                 _WDT_Initialize 04B7  
                          ?_PWM4_LoadDutyValue 0078                                          _value 0076  
                                        _speed 0074                        __end_of_PWM3_Initialize 04F0  
                                        status 0003                              ?_Servo_Motion_CCW 0078  
                                        wtemp0 007E                             ??_Servo_Motion_CCW 0078  
                              __initialization 07ED                                   __end_of_main 06BF  
                         ??_PWM4_LoadDutyValue 007A                        __end_of_PWM4_Initialize 04F9  
                      __end_of_TMR2_Initialize 04E7                                         ??_main 007D  
                                       ?_Dilui 0078                         __end_of_WDT_Initialize 04BB  
            _EUSART_DefaultFramingErrorHandler 0000                     _EUSART_OverrunErrorHandler 0036  
                                       _CCPR3H 0312                                         _CCPR4H 0319  
                                       _CCPR3L 0311                                         _CCPR4L 0318  
                                       _ANSELA 018C                                         _ANSELB 018D  
                   __end_of_EUSART_is_rx_ready 04C0                                         _BORCON 0116  
                                       _OSCCON 0099                                         _SPBRGH 019C  
                                       _SPBRGL 019B                                         _WDTCON 0097  
                                    ??_Dithang 007C                                      ??_Dunglai 007C  
                                       _Rephai 053F                                         _Retrai 0555  
                                 _CCPTMRS0bits 029E                                    _Doline_Cong 06BF  
                                       _state1 0070                                ?_WDT_Initialize 0078  
                             ?_PWM3_Initialize 0078                              _SYSTEM_Initialize 056B  
                      __end_of__initialization 07FD                             ?_SYSTEM_Initialize 0078  
                                __end_of_Dilui 05C6                                 __pcstackCOMMON 0078  
                            __end_of_Bluetooth 07ED                            ??_SYSTEM_Initialize 007A  
                             ?_TMR2_Initialize 0078                               ?_PWM4_Initialize 0078  
                  PWM4_LoadDutyValue@dutyValue 0078                                 _OPTION_REGbits 0095  
                                      ??_Dilui 007C                ??_EUSART_SetOverrunErrorHandler 007A  
                    __end_of_SYSTEM_Initialize 0581                                     __pbssBANK0 0020  
                                      ?_Rephai 0078                                        ?_Retrai 0078  
                                   __pmaintext 0681                                        _CCP3CON 0313  
                                      _CCP4CON 031A                                        _BAUDCON 019F  
                                      _APFCON0 011D                                        _APFCON1 011E  
                    ?_MotorRight_set_direction 0078                                        _OSCTUNE 0098  
                     ??_EUSART_SetErrorHandler 007A                                        _Dithang 05C6  
                                      _Dunglai 0515                               Servo_Motion_CW@i 0079  
                     ?_MotorLeft_set_direction 0078                                        __ptext1 056B  
                                      __ptext2 04B7                                        __ptext3 04DF  
                                      __ptext4 04F0                                        __ptext5 04E7  
                                      __ptext6 052A                                        __ptext7 04D8  
                                      __ptext8 0617                                        __ptext9 04CC  
                        _OSCILLATOR_Initialize 04D8                                      _T2CONbits 001C  
                     ??_PIN_MANAGER_Initialize 0078                                        clrloop0 04D3  
                         end_of_initialization 07FD          __end_of_EUSART_SetOverrunErrorHandler 04D2  
                _EUSART_SetOverrunErrorHandler 04CC                              _EUSART_Initialize 0617  
                           ?_EUSART_Initialize 0078                                      _RCSTAbits 019D  
                                 ?_Doline_Cong 0078                             _EUSART_is_rx_ready 04BB  
                          ??_EUSART_Initialize 007A                               ??_WDT_Initialize 0078  
                                    _PORTAbits 000C                                      _PORTBbits 000D  
                          ?_EUSART_is_rx_ready 0078                      __end_of_EUSART_Initialize 0638  
                         ??_EUSART_is_rx_ready 0078                                      _TXSTAbits 019E  
              __end_of_MotorLeft_set_direction 05FA                     __end_of_PWM3_LoadDutyValue 0598  
                               __end_of_Rephai 0555                                 __end_of_Retrai 056B  
                   _EUSART_DefaultErrorHandler 0000                                      _Bluetooth 0735  
                       ?_OSCILLATOR_Initialize 0078                            start_initialization 07ED  
                            ??_Servo_Motion_CW 0078                                    __end_of_Kep 0506  
                                ??_EUSART_Read 0078                 ?_EUSART_SetOverrunErrorHandler 0078  
                                     ??_Rephai 007C               __end_of_MotorRight_set_direction 0617  
                                     ??_Retrai 007C                     _EUSART_FramingErrorHandler 0038  
                       _EUSART_SetErrorHandler 04C0                                     ?_Bluetooth 0078  
                             _Servo_Motion_CCW 0638                                    __pbssCOMMON 0070  
                                    ___latbits 0001                                       ?_Dithang 0078  
                          __end_of_EUSART_Read 0515                                       ?_Dunglai 0078  
                                    __pnvBANK0 0034                         _PIN_MANAGER_Initialize 052A  
                                     _LATAbits 010C         EUSART_SetErrorHandler@interruptHandler 0078  
                                     _LATBbits 010D                                      clear_ram0 04D2  
                            _eusartRxLastError 0077                                       _PIR1bits 0011  
              ??_EUSART_SetFramingErrorHandler 007A              _EUSART_DefaultOverrunErrorHandler 0000  
                     _MotorRight_set_direction 05FA                                    ??_Bluetooth 007C  
                            ??_PWM3_Initialize 0078                                    _EUSART_Read 0506  
                            Servo_Motion_CCW@i 0079                              ??_TMR2_Initialize 0078  
                            ??_PWM4_Initialize 0078                     __end_of_PWM4_LoadDutyValue 05AF  
                              _Servo_Motion_CW 065B                        ??_OSCILLATOR_Initialize 0078  
                          _EUSART_ErrorHandler 0034                             _PWM3_LoadDutyValue 0581  
                                     __ptext10 04C6                                       __ptext11 04C0  
                                     __ptext20 0506                                       __ptext12 04F9  
                                     __ptext21 0515                                       __ptext13 065B  
                                     __ptext22 05C6                                       __ptext14 06BF  
                                     __ptext23 05AF                                       __ptext15 0735  
                                     __ptext24 0598                                       __ptext16 0638  
                                     __ptext25 0581                                       __ptext17 0555  
                                     __ptext26 05FA                                       __ptext18 053F  
                                     __ptext27 05DD                                       __ptext19 04BB  
                          ?_PWM3_LoadDutyValue 0078                       __end_of_Servo_Motion_CCW 065B  
                      ?_EUSART_SetErrorHandler 0078  EUSART_SetOverrunErrorHandler@interruptHandler 0078  
                         ??_PWM3_LoadDutyValue 007A          __end_of_EUSART_SetFramingErrorHandler 04CC  
                _EUSART_SetFramingErrorHandler 04C6                        _MotorLeft_set_direction 05DD  
                  MotorRight_set_direction@dir 0078                        ?_PIN_MANAGER_Initialize 0078  
               __end_of_EUSART_SetErrorHandler 04C6                        __end_of_Servo_Motion_CW 0681  
EUSART_SetFramingErrorHandler@interruptHandler 0078                    PWM3_LoadDutyValue@dutyValue 0078  
               __end_of_PIN_MANAGER_Initialize 053F                     ??_MotorRight_set_direction 0078  
                              _PWM3_Initialize 04E7                                  ??_Doline_Cong 007C  
